; ModuleID = 'Quicksort.cpp'
source_filename = "Quicksort.cpp"
target datalayout = "e-m:e-p270:32:32-p271:32:32-p272:64:64-i64:64-f80:128-n8:16:32:64-S128"
target triple = "x86_64-pc-linux-gnu"

%"class.std::ios_base::Init" = type { i8 }
%"class.std::basic_ostream" = type { i32 (...)**, %"class.std::basic_ios" }
%"class.std::basic_ios" = type { %"class.std::ios_base", %"class.std::basic_ostream"*, i8, i8, %"class.std::basic_streambuf"*, %"class.std::ctype"*, %"class.std::num_put"*, %"class.std::num_get"* }
%"class.std::ios_base" = type { i32 (...)**, i64, i64, i32, i32, i32, %"struct.std::ios_base::_Callback_list"*, %"struct.std::ios_base::_Words", [8 x %"struct.std::ios_base::_Words"], i32, %"struct.std::ios_base::_Words"*, %"class.std::locale" }
%"struct.std::ios_base::_Callback_list" = type { %"struct.std::ios_base::_Callback_list"*, void (i32, %"class.std::ios_base"*, i32)*, i32, i32 }
%"struct.std::ios_base::_Words" = type { i8*, i64 }
%"class.std::locale" = type { %"class.std::locale::_Impl"* }
%"class.std::locale::_Impl" = type { i32, %"class.std::locale::facet"**, i64, %"class.std::locale::facet"**, i8** }
%"class.std::locale::facet" = type <{ i32 (...)**, i32, [4 x i8] }>
%"class.std::basic_streambuf" = type { i32 (...)**, i8*, i8*, i8*, i8*, i8*, i8*, %"class.std::locale" }
%"class.std::ctype" = type <{ %"class.std::locale::facet.base", [4 x i8], %struct.__locale_struct*, i8, [7 x i8], i32*, i32*, i16*, i8, [256 x i8], [256 x i8], i8, [6 x i8] }>
%"class.std::locale::facet.base" = type <{ i32 (...)**, i32 }>
%struct.__locale_struct = type { [13 x %struct.__locale_data*], i16*, i32*, i32*, [13 x i8*] }
%struct.__locale_data = type opaque
%"class.std::num_put" = type { %"class.std::locale::facet.base", [4 x i8] }
%"class.std::num_get" = type { %"class.std::locale::facet.base", [4 x i8] }

$_ZSt4swapIiENSt9enable_ifIXsr6__and_ISt6__not_ISt15__is_tuple_likeIT_EESt21is_move_constructibleIS3_ESt18is_move_assignableIS3_EEE5valueEvE4typeERS3_SC_ = comdat any

$_ZSt4moveIRiEONSt16remove_referenceIT_E4typeEOS2_ = comdat any

@_ZStL8__ioinit = internal global %"class.std::ios_base::Init" zeroinitializer, align 1, !dbg !0
@__dso_handle = external hidden global i8
@constinit = private global [6 x i32] [i32 16, i32 3, i32 -4, i32 1, i32 1, i32 -8], align 4
@_ZSt4cout = external global %"class.std::basic_ostream", align 8
@.str = private unnamed_addr constant [2 x i8] c" \00", align 1
@.str.1 = private unnamed_addr constant [2 x i8] c"\0A\00", align 1
@llvm.global_ctors = appending global [1 x { i32, void ()*, i8* }] [{ i32, void ()*, i8* } { i32 65535, void ()* @_GLOBAL__sub_I_Quicksort.cpp, i8* null }]

; Function Attrs: noinline uwtable
define internal void @__cxx_global_var_init() #0 section ".text.startup" !dbg !898 {
entry:
  call void @_ZNSt8ios_base4InitC1Ev(%"class.std::ios_base::Init"* noundef nonnull align 1 dereferenceable(1) @_ZStL8__ioinit), !dbg !900
  %0 = call i32 @__cxa_atexit(void (i8*)* bitcast (void (%"class.std::ios_base::Init"*)* @_ZNSt8ios_base4InitD1Ev to void (i8*)*), i8* getelementptr inbounds (%"class.std::ios_base::Init", %"class.std::ios_base::Init"* @_ZStL8__ioinit, i32 0, i32 0), i8* @__dso_handle) #3, !dbg !902
  ret void, !dbg !900
}

declare void @_ZNSt8ios_base4InitC1Ev(%"class.std::ios_base::Init"* noundef nonnull align 1 dereferenceable(1)) unnamed_addr #1

; Function Attrs: nounwind
declare void @_ZNSt8ios_base4InitD1Ev(%"class.std::ios_base::Init"* noundef nonnull align 1 dereferenceable(1)) unnamed_addr #2

; Function Attrs: nounwind
declare i32 @__cxa_atexit(void (i8*)*, i8*, i8*) #3

; Function Attrs: mustprogress noinline nounwind optnone uwtable
define dso_local noundef i32 @_Z9partitionPiii(i32* noundef %arr, i32 noundef %start, i32 noundef %end) #4 !dbg !903 {
entry:
  %arr.addr = alloca i32*, align 8
  %start.addr = alloca i32, align 4
  %end.addr = alloca i32, align 4
  %pivot = alloca i32, align 4
  %count = alloca i32, align 4
  %i = alloca i32, align 4
  %pivotIndex = alloca i32, align 4
  %i8 = alloca i32, align 4
  %j = alloca i32, align 4
  store i32* %arr, i32** %arr.addr, align 8
  call void @llvm.dbg.declare(metadata i32** %arr.addr, metadata !906, metadata !DIExpression()), !dbg !907
  store i32 %start, i32* %start.addr, align 4
  call void @llvm.dbg.declare(metadata i32* %start.addr, metadata !908, metadata !DIExpression()), !dbg !909
  store i32 %end, i32* %end.addr, align 4
  call void @llvm.dbg.declare(metadata i32* %end.addr, metadata !910, metadata !DIExpression()), !dbg !911
  call void @llvm.dbg.declare(metadata i32* %pivot, metadata !912, metadata !DIExpression()), !dbg !913
  %0 = load i32*, i32** %arr.addr, align 8, !dbg !914
  %1 = load i32, i32* %start.addr, align 4, !dbg !915
  %idxprom = sext i32 %1 to i64, !dbg !914
  %arrayidx = getelementptr inbounds i32, i32* %0, i64 %idxprom, !dbg !914
  %2 = load i32, i32* %arrayidx, align 4, !dbg !914
  store i32 %2, i32* %pivot, align 4, !dbg !913
  call void @llvm.dbg.declare(metadata i32* %count, metadata !916, metadata !DIExpression()), !dbg !917
  store i32 0, i32* %count, align 4, !dbg !917
  call void @llvm.dbg.declare(metadata i32* %i, metadata !918, metadata !DIExpression()), !dbg !920
  %3 = load i32, i32* %end.addr, align 4, !dbg !921
  store i32 %3, i32* %i, align 4, !dbg !920
  br label %for.cond, !dbg !922

for.cond:                                         ; preds = %for.inc, %entry
  %4 = load i32, i32* %i, align 4, !dbg !923
  %5 = load i32, i32* %start.addr, align 4, !dbg !925
  %cmp = icmp sgt i32 %4, %5, !dbg !926
  br i1 %cmp, label %for.body, label %for.end, !dbg !927

for.body:                                         ; preds = %for.cond
  %6 = load i32*, i32** %arr.addr, align 8, !dbg !928
  %7 = load i32, i32* %i, align 4, !dbg !931
  %idxprom1 = sext i32 %7 to i64, !dbg !928
  %arrayidx2 = getelementptr inbounds i32, i32* %6, i64 %idxprom1, !dbg !928
  %8 = load i32, i32* %arrayidx2, align 4, !dbg !928
  %9 = load i32, i32* %pivot, align 4, !dbg !932
  %cmp3 = icmp sle i32 %8, %9, !dbg !933
  br i1 %cmp3, label %if.then, label %if.end, !dbg !934

if.then:                                          ; preds = %for.body
  %10 = load i32, i32* %count, align 4, !dbg !935
  %inc = add nsw i32 %10, 1, !dbg !935
  store i32 %inc, i32* %count, align 4, !dbg !935
  br label %if.end, !dbg !936

if.end:                                           ; preds = %if.then, %for.body
  br label %for.inc, !dbg !937

for.inc:                                          ; preds = %if.end
  %11 = load i32, i32* %i, align 4, !dbg !938
  %dec = add nsw i32 %11, -1, !dbg !938
  store i32 %dec, i32* %i, align 4, !dbg !938
  br label %for.cond, !dbg !939, !llvm.loop !940

for.end:                                          ; preds = %for.cond
  call void @llvm.dbg.declare(metadata i32* %pivotIndex, metadata !943, metadata !DIExpression()), !dbg !944
  %12 = load i32, i32* %start.addr, align 4, !dbg !945
  %13 = load i32, i32* %count, align 4, !dbg !946
  %add = add nsw i32 %12, %13, !dbg !947
  store i32 %add, i32* %pivotIndex, align 4, !dbg !944
  %14 = load i32*, i32** %arr.addr, align 8, !dbg !948
  %15 = load i32, i32* %pivotIndex, align 4, !dbg !949
  %idxprom4 = sext i32 %15 to i64, !dbg !948
  %arrayidx5 = getelementptr inbounds i32, i32* %14, i64 %idxprom4, !dbg !948
  %16 = load i32*, i32** %arr.addr, align 8, !dbg !950
  %17 = load i32, i32* %start.addr, align 4, !dbg !951
  %idxprom6 = sext i32 %17 to i64, !dbg !950
  %arrayidx7 = getelementptr inbounds i32, i32* %16, i64 %idxprom6, !dbg !950
  call void @_ZSt4swapIiENSt9enable_ifIXsr6__and_ISt6__not_ISt15__is_tuple_likeIT_EESt21is_move_constructibleIS3_ESt18is_move_assignableIS3_EEE5valueEvE4typeERS3_SC_(i32* noundef nonnull align 4 dereferenceable(4) %arrayidx5, i32* noundef nonnull align 4 dereferenceable(4) %arrayidx7) #3, !dbg !952
  call void @llvm.dbg.declare(metadata i32* %i8, metadata !953, metadata !DIExpression()), !dbg !954
  %18 = load i32, i32* %start.addr, align 4, !dbg !955
  store i32 %18, i32* %i8, align 4, !dbg !954
  call void @llvm.dbg.declare(metadata i32* %j, metadata !956, metadata !DIExpression()), !dbg !957
  %19 = load i32, i32* %end.addr, align 4, !dbg !958
  store i32 %19, i32* %j, align 4, !dbg !957
  br label %while.cond, !dbg !959

while.cond:                                       ; preds = %if.end33, %for.end
  %20 = load i32, i32* %i8, align 4, !dbg !960
  %21 = load i32, i32* %pivotIndex, align 4, !dbg !961
  %cmp9 = icmp slt i32 %20, %21, !dbg !962
  br i1 %cmp9, label %land.rhs, label %land.end, !dbg !963

land.rhs:                                         ; preds = %while.cond
  %22 = load i32, i32* %j, align 4, !dbg !964
  %23 = load i32, i32* %pivotIndex, align 4, !dbg !965
  %cmp10 = icmp sgt i32 %22, %23, !dbg !966
  br label %land.end

land.end:                                         ; preds = %land.rhs, %while.cond
  %24 = phi i1 [ false, %while.cond ], [ %cmp10, %land.rhs ], !dbg !967
  br i1 %24, label %while.body, label %while.end34, !dbg !959

while.body:                                       ; preds = %land.end
  br label %while.cond11, !dbg !968

while.cond11:                                     ; preds = %while.body15, %while.body
  %25 = load i32*, i32** %arr.addr, align 8, !dbg !970
  %26 = load i32, i32* %i8, align 4, !dbg !971
  %idxprom12 = sext i32 %26 to i64, !dbg !970
  %arrayidx13 = getelementptr inbounds i32, i32* %25, i64 %idxprom12, !dbg !970
  %27 = load i32, i32* %arrayidx13, align 4, !dbg !970
  %28 = load i32, i32* %pivot, align 4, !dbg !972
  %cmp14 = icmp sle i32 %27, %28, !dbg !973
  br i1 %cmp14, label %while.body15, label %while.end, !dbg !968

while.body15:                                     ; preds = %while.cond11
  %29 = load i32, i32* %i8, align 4, !dbg !974
  %inc16 = add nsw i32 %29, 1, !dbg !974
  store i32 %inc16, i32* %i8, align 4, !dbg !974
  br label %while.cond11, !dbg !968, !llvm.loop !976

while.end:                                        ; preds = %while.cond11
  br label %while.cond17, !dbg !978

while.cond17:                                     ; preds = %while.body21, %while.end
  %30 = load i32*, i32** %arr.addr, align 8, !dbg !979
  %31 = load i32, i32* %j, align 4, !dbg !980
  %idxprom18 = sext i32 %31 to i64, !dbg !979
  %arrayidx19 = getelementptr inbounds i32, i32* %30, i64 %idxprom18, !dbg !979
  %32 = load i32, i32* %arrayidx19, align 4, !dbg !979
  %33 = load i32, i32* %pivot, align 4, !dbg !981
  %cmp20 = icmp sgt i32 %32, %33, !dbg !982
  br i1 %cmp20, label %while.body21, label %while.end23, !dbg !978

while.body21:                                     ; preds = %while.cond17
  %34 = load i32, i32* %j, align 4, !dbg !983
  %dec22 = add nsw i32 %34, -1, !dbg !983
  store i32 %dec22, i32* %j, align 4, !dbg !983
  br label %while.cond17, !dbg !978, !llvm.loop !985

while.end23:                                      ; preds = %while.cond17
  %35 = load i32, i32* %i8, align 4, !dbg !987
  %36 = load i32, i32* %pivotIndex, align 4, !dbg !989
  %cmp24 = icmp slt i32 %35, %36, !dbg !990
  br i1 %cmp24, label %land.lhs.true, label %if.end33, !dbg !991

land.lhs.true:                                    ; preds = %while.end23
  %37 = load i32, i32* %j, align 4, !dbg !992
  %38 = load i32, i32* %pivotIndex, align 4, !dbg !993
  %cmp25 = icmp sgt i32 %37, %38, !dbg !994
  br i1 %cmp25, label %if.then26, label %if.end33, !dbg !995

if.then26:                                        ; preds = %land.lhs.true
  %39 = load i32*, i32** %arr.addr, align 8, !dbg !996
  %40 = load i32, i32* %i8, align 4, !dbg !998
  %inc27 = add nsw i32 %40, 1, !dbg !998
  store i32 %inc27, i32* %i8, align 4, !dbg !998
  %idxprom28 = sext i32 %40 to i64, !dbg !996
  %arrayidx29 = getelementptr inbounds i32, i32* %39, i64 %idxprom28, !dbg !996
  %41 = load i32*, i32** %arr.addr, align 8, !dbg !999
  %42 = load i32, i32* %j, align 4, !dbg !1000
  %inc30 = add nsw i32 %42, 1, !dbg !1000
  store i32 %inc30, i32* %j, align 4, !dbg !1000
  %idxprom31 = sext i32 %42 to i64, !dbg !999
  %arrayidx32 = getelementptr inbounds i32, i32* %41, i64 %idxprom31, !dbg !999
  call void @_ZSt4swapIiENSt9enable_ifIXsr6__and_ISt6__not_ISt15__is_tuple_likeIT_EESt21is_move_constructibleIS3_ESt18is_move_assignableIS3_EEE5valueEvE4typeERS3_SC_(i32* noundef nonnull align 4 dereferenceable(4) %arrayidx29, i32* noundef nonnull align 4 dereferenceable(4) %arrayidx32) #3, !dbg !1001
  br label %if.end33, !dbg !1002

if.end33:                                         ; preds = %if.then26, %land.lhs.true, %while.end23
  br label %while.cond, !dbg !959, !llvm.loop !1003

while.end34:                                      ; preds = %land.end
  %43 = load i32, i32* %pivotIndex, align 4, !dbg !1005
  ret i32 %43, !dbg !1006
}

; Function Attrs: nofree nosync nounwind readnone speculatable willreturn
declare void @llvm.dbg.declare(metadata, metadata, metadata) #5

; Function Attrs: mustprogress noinline nounwind optnone uwtable
define linkonce_odr dso_local void @_ZSt4swapIiENSt9enable_ifIXsr6__and_ISt6__not_ISt15__is_tuple_likeIT_EESt21is_move_constructibleIS3_ESt18is_move_assignableIS3_EEE5valueEvE4typeERS3_SC_(i32* noundef nonnull align 4 dereferenceable(4) %__a, i32* noundef nonnull align 4 dereferenceable(4) %__b) #4 comdat !dbg !1007 {
entry:
  %__a.addr = alloca i32*, align 8
  %__b.addr = alloca i32*, align 8
  %__tmp = alloca i32, align 4
  store i32* %__a, i32** %__a.addr, align 8
  call void @llvm.dbg.declare(metadata i32** %__a.addr, metadata !1021, metadata !DIExpression()), !dbg !1022
  store i32* %__b, i32** %__b.addr, align 8
  call void @llvm.dbg.declare(metadata i32** %__b.addr, metadata !1023, metadata !DIExpression()), !dbg !1024
  call void @llvm.dbg.declare(metadata i32* %__tmp, metadata !1025, metadata !DIExpression()), !dbg !1026
  %0 = load i32*, i32** %__a.addr, align 8, !dbg !1027
  %call = call noundef nonnull align 4 dereferenceable(4) i32* @_ZSt4moveIRiEONSt16remove_referenceIT_E4typeEOS2_(i32* noundef nonnull align 4 dereferenceable(4) %0) #3, !dbg !1027
  %1 = load i32, i32* %call, align 4, !dbg !1027
  store i32 %1, i32* %__tmp, align 4, !dbg !1026
  %2 = load i32*, i32** %__b.addr, align 8, !dbg !1028
  %call1 = call noundef nonnull align 4 dereferenceable(4) i32* @_ZSt4moveIRiEONSt16remove_referenceIT_E4typeEOS2_(i32* noundef nonnull align 4 dereferenceable(4) %2) #3, !dbg !1028
  %3 = load i32, i32* %call1, align 4, !dbg !1028
  %4 = load i32*, i32** %__a.addr, align 8, !dbg !1029
  store i32 %3, i32* %4, align 4, !dbg !1030
  %call2 = call noundef nonnull align 4 dereferenceable(4) i32* @_ZSt4moveIRiEONSt16remove_referenceIT_E4typeEOS2_(i32* noundef nonnull align 4 dereferenceable(4) %__tmp) #3, !dbg !1031
  %5 = load i32, i32* %call2, align 4, !dbg !1031
  %6 = load i32*, i32** %__b.addr, align 8, !dbg !1032
  store i32 %5, i32* %6, align 4, !dbg !1033
  ret void, !dbg !1034
}

; Function Attrs: mustprogress noinline optnone uwtable
define dso_local void @_Z9quickSortPiii(i32* noundef %arr, i32 noundef %start, i32 noundef %end) #6 !dbg !1035 {
entry:
  %arr.addr = alloca i32*, align 8
  %start.addr = alloca i32, align 4
  %end.addr = alloca i32, align 4
  %p = alloca i32, align 4
  store i32* %arr, i32** %arr.addr, align 8
  call void @llvm.dbg.declare(metadata i32** %arr.addr, metadata !1038, metadata !DIExpression()), !dbg !1039
  store i32 %start, i32* %start.addr, align 4
  call void @llvm.dbg.declare(metadata i32* %start.addr, metadata !1040, metadata !DIExpression()), !dbg !1041
  store i32 %end, i32* %end.addr, align 4
  call void @llvm.dbg.declare(metadata i32* %end.addr, metadata !1042, metadata !DIExpression()), !dbg !1043
  %0 = load i32, i32* %start.addr, align 4, !dbg !1044
  %1 = load i32, i32* %end.addr, align 4, !dbg !1046
  %cmp = icmp sge i32 %0, %1, !dbg !1047
  br i1 %cmp, label %if.then, label %if.end, !dbg !1048

if.then:                                          ; preds = %entry
  br label %return, !dbg !1049

if.end:                                           ; preds = %entry
  call void @llvm.dbg.declare(metadata i32* %p, metadata !1050, metadata !DIExpression()), !dbg !1051
  %2 = load i32*, i32** %arr.addr, align 8, !dbg !1052
  %3 = load i32, i32* %start.addr, align 4, !dbg !1053
  %4 = load i32, i32* %end.addr, align 4, !dbg !1054
  %call = call noundef i32 @_Z9partitionPiii(i32* noundef %2, i32 noundef %3, i32 noundef %4), !dbg !1055
  store i32 %call, i32* %p, align 4, !dbg !1051
  %5 = load i32*, i32** %arr.addr, align 8, !dbg !1056
  %6 = load i32, i32* %start.addr, align 4, !dbg !1057
  %7 = load i32, i32* %p, align 4, !dbg !1058
  %sub = sub nsw i32 %7, 1, !dbg !1059
  call void @_Z9quickSortPiii(i32* noundef %5, i32 noundef %6, i32 noundef %sub), !dbg !1060
  %8 = load i32*, i32** %arr.addr, align 8, !dbg !1061
  %9 = load i32, i32* %p, align 4, !dbg !1062
  %add = add nsw i32 %9, 1, !dbg !1063
  %10 = load i32, i32* %end.addr, align 4, !dbg !1064
  call void @_Z9quickSortPiii(i32* noundef %8, i32 noundef %add, i32 noundef %10), !dbg !1065
  br label %return, !dbg !1066

return:                                           ; preds = %if.end, %if.then
  ret void, !dbg !1066
}

; Function Attrs: mustprogress noinline norecurse optnone uwtable
define dso_local noundef i32 @main() #7 !dbg !1067 {
entry:
  %retval = alloca i32, align 4
  %n = alloca i32*, align 8
  %arr = alloca i32*, align 8
  %ref.tmp = alloca [6 x i32], align 4
  %i = alloca i32, align 4
  store i32 0, i32* %retval, align 4
  call void @llvm.dbg.declare(metadata i32** %n, metadata !1068, metadata !DIExpression()), !dbg !1069
  %call = call noalias i8* @malloc(i64 noundef 4) #3, !dbg !1070
  %0 = bitcast i8* %call to i32*, !dbg !1071
  store i32* %0, i32** %n, align 8, !dbg !1069
  %1 = load i32*, i32** %n, align 8, !dbg !1072
  %cmp = icmp eq i32* %1, null, !dbg !1074
  br i1 %cmp, label %if.then, label %if.end, !dbg !1075

if.then:                                          ; preds = %entry
  store i32 0, i32* %retval, align 4, !dbg !1076
  br label %return, !dbg !1076

if.end:                                           ; preds = %entry
  %2 = load i32*, i32** %n, align 8, !dbg !1078
  store i32 6, i32* %2, align 4, !dbg !1079
  call void @llvm.dbg.declare(metadata i32** %arr, metadata !1080, metadata !DIExpression()), !dbg !1081
  %3 = load i32*, i32** %n, align 8, !dbg !1082
  %4 = load i32, i32* %3, align 4, !dbg !1083
  %conv = sext i32 %4 to i64, !dbg !1083
  %call1 = call noalias i8* @calloc(i64 noundef %conv, i64 noundef 4) #3, !dbg !1084
  %5 = bitcast i8* %call1 to i32*, !dbg !1085
  store i32* %5, i32** %arr, align 8, !dbg !1081
  %6 = load i32*, i32** %arr, align 8, !dbg !1086
  %7 = bitcast i32* %6 to i8*, !dbg !1087
  %arrayinit.begin = getelementptr inbounds [6 x i32], [6 x i32]* %ref.tmp, i64 0, i64 0, !dbg !1088
  %8 = bitcast [6 x i32]* %ref.tmp to i8*, !dbg !1088
  call void @llvm.memcpy.p0i8.p0i8.i64(i8* align 4 %8, i8* align 4 bitcast ([6 x i32]* @constinit to i8*), i64 24, i1 false), !dbg !1088
  %arraydecay = getelementptr inbounds [6 x i32], [6 x i32]* %ref.tmp, i64 0, i64 0, !dbg !1087
  %9 = bitcast i32* %arraydecay to i8*, !dbg !1087
  call void @llvm.memcpy.p0i8.p0i8.i64(i8* align 4 %7, i8* align 4 %9, i64 24, i1 false), !dbg !1087
  %10 = load i32*, i32** %arr, align 8, !dbg !1089
  %11 = load i32*, i32** %n, align 8, !dbg !1090
  %12 = load i32, i32* %11, align 4, !dbg !1091
  %sub = sub nsw i32 %12, 1, !dbg !1092
  call void @_Z9quickSortPiii(i32* noundef %10, i32 noundef 0, i32 noundef %sub), !dbg !1093
  call void @llvm.dbg.declare(metadata i32* %i, metadata !1094, metadata !DIExpression()), !dbg !1096
  store i32 0, i32* %i, align 4, !dbg !1096
  br label %for.cond, !dbg !1097

for.cond:                                         ; preds = %for.inc, %if.end
  %13 = load i32, i32* %i, align 4, !dbg !1098
  %14 = load i32*, i32** %n, align 8, !dbg !1100
  %15 = load i32, i32* %14, align 4, !dbg !1101
  %cmp2 = icmp slt i32 %13, %15, !dbg !1102
  br i1 %cmp2, label %for.body, label %for.end, !dbg !1103

for.body:                                         ; preds = %for.cond
  %16 = load i32*, i32** %arr, align 8, !dbg !1104
  %17 = load i32, i32* %i, align 4, !dbg !1106
  %idxprom = sext i32 %17 to i64, !dbg !1104
  %arrayidx = getelementptr inbounds i32, i32* %16, i64 %idxprom, !dbg !1104
  %18 = load i32, i32* %arrayidx, align 4, !dbg !1104
  %call3 = call noundef nonnull align 8 dereferenceable(8) %"class.std::basic_ostream"* @_ZNSolsEi(%"class.std::basic_ostream"* noundef nonnull align 8 dereferenceable(8) @_ZSt4cout, i32 noundef %18), !dbg !1107
  %call4 = call noundef nonnull align 8 dereferenceable(8) %"class.std::basic_ostream"* @_ZStlsISt11char_traitsIcEERSt13basic_ostreamIcT_ES5_PKc(%"class.std::basic_ostream"* noundef nonnull align 8 dereferenceable(8) %call3, i8* noundef getelementptr inbounds ([2 x i8], [2 x i8]* @.str, i64 0, i64 0)), !dbg !1108
  br label %for.inc, !dbg !1109

for.inc:                                          ; preds = %for.body
  %19 = load i32, i32* %i, align 4, !dbg !1110
  %inc = add nsw i32 %19, 1, !dbg !1110
  store i32 %inc, i32* %i, align 4, !dbg !1110
  br label %for.cond, !dbg !1111, !llvm.loop !1112

for.end:                                          ; preds = %for.cond
  %call5 = call noundef nonnull align 8 dereferenceable(8) %"class.std::basic_ostream"* @_ZStlsISt11char_traitsIcEERSt13basic_ostreamIcT_ES5_PKc(%"class.std::basic_ostream"* noundef nonnull align 8 dereferenceable(8) @_ZSt4cout, i8* noundef getelementptr inbounds ([2 x i8], [2 x i8]* @.str.1, i64 0, i64 0)), !dbg !1114
  %20 = load i32*, i32** %arr, align 8, !dbg !1115
  %21 = bitcast i32* %20 to i8*, !dbg !1115
  call void @free(i8* noundef %21) #3, !dbg !1116
  store i32 0, i32* %retval, align 4, !dbg !1117
  br label %return, !dbg !1117

return:                                           ; preds = %for.end, %if.then
  %22 = load i32, i32* %retval, align 4, !dbg !1118
  ret i32 %22, !dbg !1118
}

; Function Attrs: nounwind
declare noalias i8* @malloc(i64 noundef) #2

; Function Attrs: nounwind
declare noalias i8* @calloc(i64 noundef, i64 noundef) #2

; Function Attrs: argmemonly nofree nounwind willreturn
declare void @llvm.memcpy.p0i8.p0i8.i64(i8* noalias nocapture writeonly, i8* noalias nocapture readonly, i64, i1 immarg) #8

declare noundef nonnull align 8 dereferenceable(8) %"class.std::basic_ostream"* @_ZStlsISt11char_traitsIcEERSt13basic_ostreamIcT_ES5_PKc(%"class.std::basic_ostream"* noundef nonnull align 8 dereferenceable(8), i8* noundef) #1

declare noundef nonnull align 8 dereferenceable(8) %"class.std::basic_ostream"* @_ZNSolsEi(%"class.std::basic_ostream"* noundef nonnull align 8 dereferenceable(8), i32 noundef) #1

; Function Attrs: nounwind
declare void @free(i8* noundef) #2

; Function Attrs: mustprogress noinline nounwind optnone uwtable
define linkonce_odr dso_local noundef nonnull align 4 dereferenceable(4) i32* @_ZSt4moveIRiEONSt16remove_referenceIT_E4typeEOS2_(i32* noundef nonnull align 4 dereferenceable(4) %__t) #4 comdat !dbg !1119 {
entry:
  %__t.addr = alloca i32*, align 8
  store i32* %__t, i32** %__t.addr, align 8
  call void @llvm.dbg.declare(metadata i32** %__t.addr, metadata !1127, metadata !DIExpression()), !dbg !1128
  %0 = load i32*, i32** %__t.addr, align 8, !dbg !1129
  ret i32* %0, !dbg !1130
}

; Function Attrs: noinline uwtable
define internal void @_GLOBAL__sub_I_Quicksort.cpp() #0 section ".text.startup" !dbg !1131 {
entry:
  call void @__cxx_global_var_init(), !dbg !1133
  ret void
}

attributes #0 = { noinline uwtable "frame-pointer"="all" "min-legal-vector-width"="0" "no-trapping-math"="true" "stack-protector-buffer-size"="8" "target-cpu"="x86-64" "target-features"="+cx8,+fxsr,+mmx,+sse,+sse2,+x87" "tune-cpu"="generic" }
attributes #1 = { "frame-pointer"="all" "no-trapping-math"="true" "stack-protector-buffer-size"="8" "target-cpu"="x86-64" "target-features"="+cx8,+fxsr,+mmx,+sse,+sse2,+x87" "tune-cpu"="generic" }
attributes #2 = { nounwind "frame-pointer"="all" "no-trapping-math"="true" "stack-protector-buffer-size"="8" "target-cpu"="x86-64" "target-features"="+cx8,+fxsr,+mmx,+sse,+sse2,+x87" "tune-cpu"="generic" }
attributes #3 = { nounwind }
attributes #4 = { mustprogress noinline nounwind optnone uwtable "frame-pointer"="all" "min-legal-vector-width"="0" "no-trapping-math"="true" "stack-protector-buffer-size"="8" "target-cpu"="x86-64" "target-features"="+cx8,+fxsr,+mmx,+sse,+sse2,+x87" "tune-cpu"="generic" }
attributes #5 = { nofree nosync nounwind readnone speculatable willreturn }
attributes #6 = { mustprogress noinline optnone uwtable "frame-pointer"="all" "min-legal-vector-width"="0" "no-trapping-math"="true" "stack-protector-buffer-size"="8" "target-cpu"="x86-64" "target-features"="+cx8,+fxsr,+mmx,+sse,+sse2,+x87" "tune-cpu"="generic" }
attributes #7 = { mustprogress noinline norecurse optnone uwtable "frame-pointer"="all" "min-legal-vector-width"="0" "no-trapping-math"="true" "stack-protector-buffer-size"="8" "target-cpu"="x86-64" "target-features"="+cx8,+fxsr,+mmx,+sse,+sse2,+x87" "tune-cpu"="generic" }
attributes #8 = { argmemonly nofree nounwind willreturn }

!llvm.dbg.cu = !{!7}
!llvm.module.flags = !{!890, !891, !892, !893, !894, !895, !896}
!llvm.ident = !{!897}

!0 = !DIGlobalVariableExpression(var: !1, expr: !DIExpression())
!1 = distinct !DIGlobalVariable(name: "__ioinit", linkageName: "_ZStL8__ioinit", scope: !2, file: !3, line: 74, type: !4, isLocal: true, isDefinition: true)
!2 = !DINamespace(name: "std", scope: null)
!3 = !DIFile(filename: "/usr/bin/../lib/gcc/x86_64-linux-gnu/11/../../../../include/c++/11/iostream", directory: "")
!4 = !DICompositeType(tag: DW_TAG_class_type, name: "Init", scope: !6, file: !5, line: 626, size: 8, flags: DIFlagFwdDecl | DIFlagNonTrivial, identifier: "_ZTSNSt8ios_base4InitE")
!5 = !DIFile(filename: "/usr/bin/../lib/gcc/x86_64-linux-gnu/11/../../../../include/c++/11/bits/ios_base.h", directory: "")
!6 = !DICompositeType(tag: DW_TAG_class_type, name: "ios_base", scope: !2, file: !5, line: 228, size: 1728, flags: DIFlagFwdDecl | DIFlagNonTrivial)
!7 = distinct !DICompileUnit(language: DW_LANG_C_plus_plus_14, file: !8, producer: "Ubuntu clang version 14.0.0-1ubuntu1.1", isOptimized: false, runtimeVersion: 0, emissionKind: FullDebug, retainedTypes: !9, globals: !12, imports: !13, splitDebugInlining: false, nameTableKind: None)
!8 = !DIFile(filename: "Quicksort.cpp", directory: "/home/mani/Desktop/ToyMLIR/instructors/Assignment5/TestCases/Quicksort", checksumkind: CSK_MD5, checksum: "f363b83642ec840db41a54a85e3db736")
!9 = !{!10}
!10 = !DIDerivedType(tag: DW_TAG_pointer_type, baseType: !11, size: 64)
!11 = !DIBasicType(name: "int", size: 32, encoding: DW_ATE_signed)
!12 = !{!0}
!13 = !{!14, !20, !24, !31, !35, !40, !42, !50, !54, !58, !72, !76, !80, !84, !88, !93, !97, !101, !105, !109, !117, !121, !125, !127, !131, !135, !140, !146, !150, !154, !156, !164, !168, !176, !178, !182, !186, !190, !194, !199, !204, !209, !210, !211, !212, !214, !215, !216, !217, !218, !219, !220, !222, !223, !224, !225, !226, !227, !228, !233, !234, !235, !236, !237, !238, !239, !240, !241, !242, !243, !244, !245, !246, !247, !248, !249, !250, !251, !252, !253, !254, !255, !256, !257, !274, !277, !282, !291, !296, !300, !304, !308, !312, !314, !316, !320, !326, !330, !336, !342, !344, !348, !352, !356, !360, !372, !374, !378, !382, !386, !388, !392, !396, !400, !402, !404, !408, !416, !420, !424, !428, !430, !436, !438, !444, !448, !452, !456, !460, !464, !468, !470, !472, !476, !480, !484, !486, !490, !494, !496, !498, !502, !506, !510, !514, !515, !516, !517, !518, !519, !520, !521, !522, !523, !524, !528, !532, !536, !543, !547, !550, !553, !556, !558, !560, !562, !565, !568, !571, !574, !577, !579, !584, !588, !591, !594, !596, !598, !600, !602, !605, !608, !611, !614, !617, !619, !623, !627, !632, !636, !638, !640, !642, !644, !646, !648, !650, !652, !654, !656, !658, !660, !662, !666, !672, !677, !681, !683, !685, !687, !689, !696, !700, !704, !708, !712, !716, !721, !725, !727, !731, !737, !741, !746, !748, !750, !754, !758, !760, !762, !764, !766, !770, !772, !774, !778, !782, !786, !790, !794, !798, !800, !804, !808, !812, !816, !818, !820, !824, !828, !829, !830, !831, !832, !833, !839, !842, !843, !845, !847, !849, !851, !855, !857, !859, !861, !863, !865, !867, !869, !871, !875, !879, !881, !885, !889}
!14 = !DIImportedEntity(tag: DW_TAG_imported_declaration, scope: !2, entity: !15, file: !19, line: 52)
!15 = !DISubprogram(name: "abs", scope: !16, file: !16, line: 848, type: !17, flags: DIFlagPrototyped, spFlags: 0)
!16 = !DIFile(filename: "/usr/include/stdlib.h", directory: "", checksumkind: CSK_MD5, checksum: "02258fad21adf111bb9df9825e61954a")
!17 = !DISubroutineType(types: !18)
!18 = !{!11, !11}
!19 = !DIFile(filename: "/usr/bin/../lib/gcc/x86_64-linux-gnu/11/../../../../include/c++/11/bits/std_abs.h", directory: "")
!20 = !DIImportedEntity(tag: DW_TAG_imported_declaration, scope: !2, entity: !21, file: !23, line: 127)
!21 = !DIDerivedType(tag: DW_TAG_typedef, name: "div_t", file: !16, line: 63, baseType: !22)
!22 = !DICompositeType(tag: DW_TAG_structure_type, file: !16, line: 59, size: 64, flags: DIFlagFwdDecl, identifier: "_ZTS5div_t")
!23 = !DIFile(filename: "/usr/bin/../lib/gcc/x86_64-linux-gnu/11/../../../../include/c++/11/cstdlib", directory: "")
!24 = !DIImportedEntity(tag: DW_TAG_imported_declaration, scope: !2, entity: !25, file: !23, line: 128)
!25 = !DIDerivedType(tag: DW_TAG_typedef, name: "ldiv_t", file: !16, line: 71, baseType: !26)
!26 = distinct !DICompositeType(tag: DW_TAG_structure_type, file: !16, line: 67, size: 128, flags: DIFlagTypePassByValue, elements: !27, identifier: "_ZTS6ldiv_t")
!27 = !{!28, !30}
!28 = !DIDerivedType(tag: DW_TAG_member, name: "quot", scope: !26, file: !16, line: 69, baseType: !29, size: 64)
!29 = !DIBasicType(name: "long", size: 64, encoding: DW_ATE_signed)
!30 = !DIDerivedType(tag: DW_TAG_member, name: "rem", scope: !26, file: !16, line: 70, baseType: !29, size: 64, offset: 64)
!31 = !DIImportedEntity(tag: DW_TAG_imported_declaration, scope: !2, entity: !32, file: !23, line: 130)
!32 = !DISubprogram(name: "abort", scope: !16, file: !16, line: 598, type: !33, flags: DIFlagPrototyped | DIFlagNoReturn, spFlags: 0)
!33 = !DISubroutineType(types: !34)
!34 = !{null}
!35 = !DIImportedEntity(tag: DW_TAG_imported_declaration, scope: !2, entity: !36, file: !23, line: 134)
!36 = !DISubprogram(name: "atexit", scope: !16, file: !16, line: 602, type: !37, flags: DIFlagPrototyped, spFlags: 0)
!37 = !DISubroutineType(types: !38)
!38 = !{!11, !39}
!39 = !DIDerivedType(tag: DW_TAG_pointer_type, baseType: !33, size: 64)
!40 = !DIImportedEntity(tag: DW_TAG_imported_declaration, scope: !2, entity: !41, file: !23, line: 137)
!41 = !DISubprogram(name: "at_quick_exit", scope: !16, file: !16, line: 607, type: !37, flags: DIFlagPrototyped, spFlags: 0)
!42 = !DIImportedEntity(tag: DW_TAG_imported_declaration, scope: !2, entity: !43, file: !23, line: 140)
!43 = !DISubprogram(name: "atof", scope: !16, file: !16, line: 102, type: !44, flags: DIFlagPrototyped, spFlags: 0)
!44 = !DISubroutineType(types: !45)
!45 = !{!46, !47}
!46 = !DIBasicType(name: "double", size: 64, encoding: DW_ATE_float)
!47 = !DIDerivedType(tag: DW_TAG_pointer_type, baseType: !48, size: 64)
!48 = !DIDerivedType(tag: DW_TAG_const_type, baseType: !49)
!49 = !DIBasicType(name: "char", size: 8, encoding: DW_ATE_signed_char)
!50 = !DIImportedEntity(tag: DW_TAG_imported_declaration, scope: !2, entity: !51, file: !23, line: 141)
!51 = !DISubprogram(name: "atoi", scope: !16, file: !16, line: 105, type: !52, flags: DIFlagPrototyped, spFlags: 0)
!52 = !DISubroutineType(types: !53)
!53 = !{!11, !47}
!54 = !DIImportedEntity(tag: DW_TAG_imported_declaration, scope: !2, entity: !55, file: !23, line: 142)
!55 = !DISubprogram(name: "atol", scope: !16, file: !16, line: 108, type: !56, flags: DIFlagPrototyped, spFlags: 0)
!56 = !DISubroutineType(types: !57)
!57 = !{!29, !47}
!58 = !DIImportedEntity(tag: DW_TAG_imported_declaration, scope: !2, entity: !59, file: !23, line: 143)
!59 = !DISubprogram(name: "bsearch", scope: !16, file: !16, line: 828, type: !60, flags: DIFlagPrototyped, spFlags: 0)
!60 = !DISubroutineType(types: !61)
!61 = !{!62, !63, !63, !65, !65, !68}
!62 = !DIDerivedType(tag: DW_TAG_pointer_type, baseType: null, size: 64)
!63 = !DIDerivedType(tag: DW_TAG_pointer_type, baseType: !64, size: 64)
!64 = !DIDerivedType(tag: DW_TAG_const_type, baseType: null)
!65 = !DIDerivedType(tag: DW_TAG_typedef, name: "size_t", file: !66, line: 46, baseType: !67)
!66 = !DIFile(filename: "/usr/lib/llvm-14/lib/clang/14.0.0/include/stddef.h", directory: "", checksumkind: CSK_MD5, checksum: "2499dd2361b915724b073282bea3a7bc")
!67 = !DIBasicType(name: "unsigned long", size: 64, encoding: DW_ATE_unsigned)
!68 = !DIDerivedType(tag: DW_TAG_typedef, name: "__compar_fn_t", file: !16, line: 816, baseType: !69)
!69 = !DIDerivedType(tag: DW_TAG_pointer_type, baseType: !70, size: 64)
!70 = !DISubroutineType(types: !71)
!71 = !{!11, !63, !63}
!72 = !DIImportedEntity(tag: DW_TAG_imported_declaration, scope: !2, entity: !73, file: !23, line: 144)
!73 = !DISubprogram(name: "calloc", scope: !16, file: !16, line: 543, type: !74, flags: DIFlagPrototyped, spFlags: 0)
!74 = !DISubroutineType(types: !75)
!75 = !{!62, !65, !65}
!76 = !DIImportedEntity(tag: DW_TAG_imported_declaration, scope: !2, entity: !77, file: !23, line: 145)
!77 = !DISubprogram(name: "div", scope: !16, file: !16, line: 860, type: !78, flags: DIFlagPrototyped, spFlags: 0)
!78 = !DISubroutineType(types: !79)
!79 = !{!21, !11, !11}
!80 = !DIImportedEntity(tag: DW_TAG_imported_declaration, scope: !2, entity: !81, file: !23, line: 146)
!81 = !DISubprogram(name: "exit", scope: !16, file: !16, line: 624, type: !82, flags: DIFlagPrototyped | DIFlagNoReturn, spFlags: 0)
!82 = !DISubroutineType(types: !83)
!83 = !{null, !11}
!84 = !DIImportedEntity(tag: DW_TAG_imported_declaration, scope: !2, entity: !85, file: !23, line: 147)
!85 = !DISubprogram(name: "free", scope: !16, file: !16, line: 555, type: !86, flags: DIFlagPrototyped, spFlags: 0)
!86 = !DISubroutineType(types: !87)
!87 = !{null, !62}
!88 = !DIImportedEntity(tag: DW_TAG_imported_declaration, scope: !2, entity: !89, file: !23, line: 148)
!89 = !DISubprogram(name: "getenv", scope: !16, file: !16, line: 641, type: !90, flags: DIFlagPrototyped, spFlags: 0)
!90 = !DISubroutineType(types: !91)
!91 = !{!92, !47}
!92 = !DIDerivedType(tag: DW_TAG_pointer_type, baseType: !49, size: 64)
!93 = !DIImportedEntity(tag: DW_TAG_imported_declaration, scope: !2, entity: !94, file: !23, line: 149)
!94 = !DISubprogram(name: "labs", scope: !16, file: !16, line: 849, type: !95, flags: DIFlagPrototyped, spFlags: 0)
!95 = !DISubroutineType(types: !96)
!96 = !{!29, !29}
!97 = !DIImportedEntity(tag: DW_TAG_imported_declaration, scope: !2, entity: !98, file: !23, line: 150)
!98 = !DISubprogram(name: "ldiv", scope: !16, file: !16, line: 862, type: !99, flags: DIFlagPrototyped, spFlags: 0)
!99 = !DISubroutineType(types: !100)
!100 = !{!25, !29, !29}
!101 = !DIImportedEntity(tag: DW_TAG_imported_declaration, scope: !2, entity: !102, file: !23, line: 151)
!102 = !DISubprogram(name: "malloc", scope: !16, file: !16, line: 540, type: !103, flags: DIFlagPrototyped, spFlags: 0)
!103 = !DISubroutineType(types: !104)
!104 = !{!62, !65}
!105 = !DIImportedEntity(tag: DW_TAG_imported_declaration, scope: !2, entity: !106, file: !23, line: 153)
!106 = !DISubprogram(name: "mblen", scope: !16, file: !16, line: 930, type: !107, flags: DIFlagPrototyped, spFlags: 0)
!107 = !DISubroutineType(types: !108)
!108 = !{!11, !47, !65}
!109 = !DIImportedEntity(tag: DW_TAG_imported_declaration, scope: !2, entity: !110, file: !23, line: 154)
!110 = !DISubprogram(name: "mbstowcs", scope: !16, file: !16, line: 941, type: !111, flags: DIFlagPrototyped, spFlags: 0)
!111 = !DISubroutineType(types: !112)
!112 = !{!65, !113, !116, !65}
!113 = !DIDerivedType(tag: DW_TAG_restrict_type, baseType: !114)
!114 = !DIDerivedType(tag: DW_TAG_pointer_type, baseType: !115, size: 64)
!115 = !DIBasicType(name: "wchar_t", size: 32, encoding: DW_ATE_signed)
!116 = !DIDerivedType(tag: DW_TAG_restrict_type, baseType: !47)
!117 = !DIImportedEntity(tag: DW_TAG_imported_declaration, scope: !2, entity: !118, file: !23, line: 155)
!118 = !DISubprogram(name: "mbtowc", scope: !16, file: !16, line: 933, type: !119, flags: DIFlagPrototyped, spFlags: 0)
!119 = !DISubroutineType(types: !120)
!120 = !{!11, !113, !116, !65}
!121 = !DIImportedEntity(tag: DW_TAG_imported_declaration, scope: !2, entity: !122, file: !23, line: 157)
!122 = !DISubprogram(name: "qsort", scope: !16, file: !16, line: 838, type: !123, flags: DIFlagPrototyped, spFlags: 0)
!123 = !DISubroutineType(types: !124)
!124 = !{null, !62, !65, !65, !68}
!125 = !DIImportedEntity(tag: DW_TAG_imported_declaration, scope: !2, entity: !126, file: !23, line: 160)
!126 = !DISubprogram(name: "quick_exit", scope: !16, file: !16, line: 630, type: !82, flags: DIFlagPrototyped | DIFlagNoReturn, spFlags: 0)
!127 = !DIImportedEntity(tag: DW_TAG_imported_declaration, scope: !2, entity: !128, file: !23, line: 163)
!128 = !DISubprogram(name: "rand", scope: !16, file: !16, line: 454, type: !129, flags: DIFlagPrototyped, spFlags: 0)
!129 = !DISubroutineType(types: !130)
!130 = !{!11}
!131 = !DIImportedEntity(tag: DW_TAG_imported_declaration, scope: !2, entity: !132, file: !23, line: 164)
!132 = !DISubprogram(name: "realloc", scope: !16, file: !16, line: 551, type: !133, flags: DIFlagPrototyped, spFlags: 0)
!133 = !DISubroutineType(types: !134)
!134 = !{!62, !62, !65}
!135 = !DIImportedEntity(tag: DW_TAG_imported_declaration, scope: !2, entity: !136, file: !23, line: 165)
!136 = !DISubprogram(name: "srand", scope: !16, file: !16, line: 456, type: !137, flags: DIFlagPrototyped, spFlags: 0)
!137 = !DISubroutineType(types: !138)
!138 = !{null, !139}
!139 = !DIBasicType(name: "unsigned int", size: 32, encoding: DW_ATE_unsigned)
!140 = !DIImportedEntity(tag: DW_TAG_imported_declaration, scope: !2, entity: !141, file: !23, line: 166)
!141 = !DISubprogram(name: "strtod", scope: !16, file: !16, line: 118, type: !142, flags: DIFlagPrototyped, spFlags: 0)
!142 = !DISubroutineType(types: !143)
!143 = !{!46, !116, !144}
!144 = !DIDerivedType(tag: DW_TAG_restrict_type, baseType: !145)
!145 = !DIDerivedType(tag: DW_TAG_pointer_type, baseType: !92, size: 64)
!146 = !DIImportedEntity(tag: DW_TAG_imported_declaration, scope: !2, entity: !147, file: !23, line: 167)
!147 = !DISubprogram(name: "strtol", scope: !16, file: !16, line: 177, type: !148, flags: DIFlagPrototyped, spFlags: 0)
!148 = !DISubroutineType(types: !149)
!149 = !{!29, !116, !144, !11}
!150 = !DIImportedEntity(tag: DW_TAG_imported_declaration, scope: !2, entity: !151, file: !23, line: 168)
!151 = !DISubprogram(name: "strtoul", scope: !16, file: !16, line: 181, type: !152, flags: DIFlagPrototyped, spFlags: 0)
!152 = !DISubroutineType(types: !153)
!153 = !{!67, !116, !144, !11}
!154 = !DIImportedEntity(tag: DW_TAG_imported_declaration, scope: !2, entity: !155, file: !23, line: 169)
!155 = !DISubprogram(name: "system", scope: !16, file: !16, line: 791, type: !52, flags: DIFlagPrototyped, spFlags: 0)
!156 = !DIImportedEntity(tag: DW_TAG_imported_declaration, scope: !2, entity: !157, file: !23, line: 171)
!157 = !DISubprogram(name: "wcstombs", scope: !16, file: !16, line: 945, type: !158, flags: DIFlagPrototyped, spFlags: 0)
!158 = !DISubroutineType(types: !159)
!159 = !{!65, !160, !161, !65}
!160 = !DIDerivedType(tag: DW_TAG_restrict_type, baseType: !92)
!161 = !DIDerivedType(tag: DW_TAG_restrict_type, baseType: !162)
!162 = !DIDerivedType(tag: DW_TAG_pointer_type, baseType: !163, size: 64)
!163 = !DIDerivedType(tag: DW_TAG_const_type, baseType: !115)
!164 = !DIImportedEntity(tag: DW_TAG_imported_declaration, scope: !2, entity: !165, file: !23, line: 172)
!165 = !DISubprogram(name: "wctomb", scope: !16, file: !16, line: 937, type: !166, flags: DIFlagPrototyped, spFlags: 0)
!166 = !DISubroutineType(types: !167)
!167 = !{!11, !92, !115}
!168 = !DIImportedEntity(tag: DW_TAG_imported_declaration, scope: !169, entity: !170, file: !23, line: 200)
!169 = !DINamespace(name: "__gnu_cxx", scope: null)
!170 = !DIDerivedType(tag: DW_TAG_typedef, name: "lldiv_t", file: !16, line: 81, baseType: !171)
!171 = distinct !DICompositeType(tag: DW_TAG_structure_type, file: !16, line: 77, size: 128, flags: DIFlagTypePassByValue, elements: !172, identifier: "_ZTS7lldiv_t")
!172 = !{!173, !175}
!173 = !DIDerivedType(tag: DW_TAG_member, name: "quot", scope: !171, file: !16, line: 79, baseType: !174, size: 64)
!174 = !DIBasicType(name: "long long", size: 64, encoding: DW_ATE_signed)
!175 = !DIDerivedType(tag: DW_TAG_member, name: "rem", scope: !171, file: !16, line: 80, baseType: !174, size: 64, offset: 64)
!176 = !DIImportedEntity(tag: DW_TAG_imported_declaration, scope: !169, entity: !177, file: !23, line: 206)
!177 = !DISubprogram(name: "_Exit", scope: !16, file: !16, line: 636, type: !82, flags: DIFlagPrototyped | DIFlagNoReturn, spFlags: 0)
!178 = !DIImportedEntity(tag: DW_TAG_imported_declaration, scope: !169, entity: !179, file: !23, line: 210)
!179 = !DISubprogram(name: "llabs", scope: !16, file: !16, line: 852, type: !180, flags: DIFlagPrototyped, spFlags: 0)
!180 = !DISubroutineType(types: !181)
!181 = !{!174, !174}
!182 = !DIImportedEntity(tag: DW_TAG_imported_declaration, scope: !169, entity: !183, file: !23, line: 216)
!183 = !DISubprogram(name: "lldiv", scope: !16, file: !16, line: 866, type: !184, flags: DIFlagPrototyped, spFlags: 0)
!184 = !DISubroutineType(types: !185)
!185 = !{!170, !174, !174}
!186 = !DIImportedEntity(tag: DW_TAG_imported_declaration, scope: !169, entity: !187, file: !23, line: 227)
!187 = !DISubprogram(name: "atoll", scope: !16, file: !16, line: 113, type: !188, flags: DIFlagPrototyped, spFlags: 0)
!188 = !DISubroutineType(types: !189)
!189 = !{!174, !47}
!190 = !DIImportedEntity(tag: DW_TAG_imported_declaration, scope: !169, entity: !191, file: !23, line: 228)
!191 = !DISubprogram(name: "strtoll", scope: !16, file: !16, line: 201, type: !192, flags: DIFlagPrototyped, spFlags: 0)
!192 = !DISubroutineType(types: !193)
!193 = !{!174, !116, !144, !11}
!194 = !DIImportedEntity(tag: DW_TAG_imported_declaration, scope: !169, entity: !195, file: !23, line: 229)
!195 = !DISubprogram(name: "strtoull", scope: !16, file: !16, line: 206, type: !196, flags: DIFlagPrototyped, spFlags: 0)
!196 = !DISubroutineType(types: !197)
!197 = !{!198, !116, !144, !11}
!198 = !DIBasicType(name: "unsigned long long", size: 64, encoding: DW_ATE_unsigned)
!199 = !DIImportedEntity(tag: DW_TAG_imported_declaration, scope: !169, entity: !200, file: !23, line: 231)
!200 = !DISubprogram(name: "strtof", scope: !16, file: !16, line: 124, type: !201, flags: DIFlagPrototyped, spFlags: 0)
!201 = !DISubroutineType(types: !202)
!202 = !{!203, !116, !144}
!203 = !DIBasicType(name: "float", size: 32, encoding: DW_ATE_float)
!204 = !DIImportedEntity(tag: DW_TAG_imported_declaration, scope: !169, entity: !205, file: !23, line: 232)
!205 = !DISubprogram(name: "strtold", scope: !16, file: !16, line: 127, type: !206, flags: DIFlagPrototyped, spFlags: 0)
!206 = !DISubroutineType(types: !207)
!207 = !{!208, !116, !144}
!208 = !DIBasicType(name: "long double", size: 128, encoding: DW_ATE_float)
!209 = !DIImportedEntity(tag: DW_TAG_imported_declaration, scope: !2, entity: !170, file: !23, line: 240)
!210 = !DIImportedEntity(tag: DW_TAG_imported_declaration, scope: !2, entity: !177, file: !23, line: 242)
!211 = !DIImportedEntity(tag: DW_TAG_imported_declaration, scope: !2, entity: !179, file: !23, line: 244)
!212 = !DIImportedEntity(tag: DW_TAG_imported_declaration, scope: !2, entity: !213, file: !23, line: 245)
!213 = !DISubprogram(name: "div", linkageName: "_ZN9__gnu_cxx3divExx", scope: !169, file: !23, line: 213, type: !184, flags: DIFlagPrototyped, spFlags: 0)
!214 = !DIImportedEntity(tag: DW_TAG_imported_declaration, scope: !2, entity: !183, file: !23, line: 246)
!215 = !DIImportedEntity(tag: DW_TAG_imported_declaration, scope: !2, entity: !187, file: !23, line: 248)
!216 = !DIImportedEntity(tag: DW_TAG_imported_declaration, scope: !2, entity: !200, file: !23, line: 249)
!217 = !DIImportedEntity(tag: DW_TAG_imported_declaration, scope: !2, entity: !191, file: !23, line: 250)
!218 = !DIImportedEntity(tag: DW_TAG_imported_declaration, scope: !2, entity: !195, file: !23, line: 251)
!219 = !DIImportedEntity(tag: DW_TAG_imported_declaration, scope: !2, entity: !205, file: !23, line: 252)
!220 = !DIImportedEntity(tag: DW_TAG_imported_declaration, scope: !7, entity: !32, file: !221, line: 38)
!221 = !DIFile(filename: "/usr/bin/../lib/gcc/x86_64-linux-gnu/11/../../../../include/c++/11/stdlib.h", directory: "", checksumkind: CSK_MD5, checksum: "0f5b773a303c24013fb112082e6d18a5")
!222 = !DIImportedEntity(tag: DW_TAG_imported_declaration, scope: !7, entity: !36, file: !221, line: 39)
!223 = !DIImportedEntity(tag: DW_TAG_imported_declaration, scope: !7, entity: !81, file: !221, line: 40)
!224 = !DIImportedEntity(tag: DW_TAG_imported_declaration, scope: !7, entity: !41, file: !221, line: 43)
!225 = !DIImportedEntity(tag: DW_TAG_imported_declaration, scope: !7, entity: !126, file: !221, line: 46)
!226 = !DIImportedEntity(tag: DW_TAG_imported_declaration, scope: !7, entity: !21, file: !221, line: 51)
!227 = !DIImportedEntity(tag: DW_TAG_imported_declaration, scope: !7, entity: !25, file: !221, line: 52)
!228 = !DIImportedEntity(tag: DW_TAG_imported_declaration, scope: !7, entity: !229, file: !221, line: 54)
!229 = !DISubprogram(name: "abs", linkageName: "_ZSt3absg", scope: !2, file: !19, line: 103, type: !230, flags: DIFlagPrototyped, spFlags: 0)
!230 = !DISubroutineType(types: !231)
!231 = !{!232, !232}
!232 = !DIBasicType(name: "__float128", size: 128, encoding: DW_ATE_float)
!233 = !DIImportedEntity(tag: DW_TAG_imported_declaration, scope: !7, entity: !43, file: !221, line: 55)
!234 = !DIImportedEntity(tag: DW_TAG_imported_declaration, scope: !7, entity: !51, file: !221, line: 56)
!235 = !DIImportedEntity(tag: DW_TAG_imported_declaration, scope: !7, entity: !55, file: !221, line: 57)
!236 = !DIImportedEntity(tag: DW_TAG_imported_declaration, scope: !7, entity: !59, file: !221, line: 58)
!237 = !DIImportedEntity(tag: DW_TAG_imported_declaration, scope: !7, entity: !73, file: !221, line: 59)
!238 = !DIImportedEntity(tag: DW_TAG_imported_declaration, scope: !7, entity: !213, file: !221, line: 60)
!239 = !DIImportedEntity(tag: DW_TAG_imported_declaration, scope: !7, entity: !85, file: !221, line: 61)
!240 = !DIImportedEntity(tag: DW_TAG_imported_declaration, scope: !7, entity: !89, file: !221, line: 62)
!241 = !DIImportedEntity(tag: DW_TAG_imported_declaration, scope: !7, entity: !94, file: !221, line: 63)
!242 = !DIImportedEntity(tag: DW_TAG_imported_declaration, scope: !7, entity: !98, file: !221, line: 64)
!243 = !DIImportedEntity(tag: DW_TAG_imported_declaration, scope: !7, entity: !102, file: !221, line: 65)
!244 = !DIImportedEntity(tag: DW_TAG_imported_declaration, scope: !7, entity: !106, file: !221, line: 67)
!245 = !DIImportedEntity(tag: DW_TAG_imported_declaration, scope: !7, entity: !110, file: !221, line: 68)
!246 = !DIImportedEntity(tag: DW_TAG_imported_declaration, scope: !7, entity: !118, file: !221, line: 69)
!247 = !DIImportedEntity(tag: DW_TAG_imported_declaration, scope: !7, entity: !122, file: !221, line: 71)
!248 = !DIImportedEntity(tag: DW_TAG_imported_declaration, scope: !7, entity: !128, file: !221, line: 72)
!249 = !DIImportedEntity(tag: DW_TAG_imported_declaration, scope: !7, entity: !132, file: !221, line: 73)
!250 = !DIImportedEntity(tag: DW_TAG_imported_declaration, scope: !7, entity: !136, file: !221, line: 74)
!251 = !DIImportedEntity(tag: DW_TAG_imported_declaration, scope: !7, entity: !141, file: !221, line: 75)
!252 = !DIImportedEntity(tag: DW_TAG_imported_declaration, scope: !7, entity: !147, file: !221, line: 76)
!253 = !DIImportedEntity(tag: DW_TAG_imported_declaration, scope: !7, entity: !151, file: !221, line: 77)
!254 = !DIImportedEntity(tag: DW_TAG_imported_declaration, scope: !7, entity: !155, file: !221, line: 78)
!255 = !DIImportedEntity(tag: DW_TAG_imported_declaration, scope: !7, entity: !157, file: !221, line: 80)
!256 = !DIImportedEntity(tag: DW_TAG_imported_declaration, scope: !7, entity: !165, file: !221, line: 81)
!257 = !DIImportedEntity(tag: DW_TAG_imported_declaration, scope: !2, entity: !258, file: !273, line: 64)
!258 = !DIDerivedType(tag: DW_TAG_typedef, name: "mbstate_t", file: !259, line: 6, baseType: !260)
!259 = !DIFile(filename: "/usr/include/x86_64-linux-gnu/bits/types/mbstate_t.h", directory: "", checksumkind: CSK_MD5, checksum: "ba8742313715e20e434cf6ccb2db98e3")
!260 = !DIDerivedType(tag: DW_TAG_typedef, name: "__mbstate_t", file: !261, line: 21, baseType: !262)
!261 = !DIFile(filename: "/usr/include/x86_64-linux-gnu/bits/types/__mbstate_t.h", directory: "", checksumkind: CSK_MD5, checksum: "82911a3e689448e3691ded3e0b471a55")
!262 = distinct !DICompositeType(tag: DW_TAG_structure_type, file: !261, line: 13, size: 64, flags: DIFlagTypePassByValue, elements: !263, identifier: "_ZTS11__mbstate_t")
!263 = !{!264, !265}
!264 = !DIDerivedType(tag: DW_TAG_member, name: "__count", scope: !262, file: !261, line: 15, baseType: !11, size: 32)
!265 = !DIDerivedType(tag: DW_TAG_member, name: "__value", scope: !262, file: !261, line: 20, baseType: !266, size: 32, offset: 32)
!266 = distinct !DICompositeType(tag: DW_TAG_union_type, scope: !262, file: !261, line: 16, size: 32, flags: DIFlagTypePassByValue, elements: !267, identifier: "_ZTSN11__mbstate_tUt_E")
!267 = !{!268, !269}
!268 = !DIDerivedType(tag: DW_TAG_member, name: "__wch", scope: !266, file: !261, line: 18, baseType: !139, size: 32)
!269 = !DIDerivedType(tag: DW_TAG_member, name: "__wchb", scope: !266, file: !261, line: 19, baseType: !270, size: 32)
!270 = !DICompositeType(tag: DW_TAG_array_type, baseType: !49, size: 32, elements: !271)
!271 = !{!272}
!272 = !DISubrange(count: 4)
!273 = !DIFile(filename: "/usr/bin/../lib/gcc/x86_64-linux-gnu/11/../../../../include/c++/11/cwchar", directory: "")
!274 = !DIImportedEntity(tag: DW_TAG_imported_declaration, scope: !2, entity: !275, file: !273, line: 141)
!275 = !DIDerivedType(tag: DW_TAG_typedef, name: "wint_t", file: !276, line: 20, baseType: !139)
!276 = !DIFile(filename: "/usr/include/x86_64-linux-gnu/bits/types/wint_t.h", directory: "", checksumkind: CSK_MD5, checksum: "aa31b53ef28dc23152ceb41e2763ded3")
!277 = !DIImportedEntity(tag: DW_TAG_imported_declaration, scope: !2, entity: !278, file: !273, line: 143)
!278 = !DISubprogram(name: "btowc", scope: !279, file: !279, line: 285, type: !280, flags: DIFlagPrototyped, spFlags: 0)
!279 = !DIFile(filename: "/usr/include/wchar.h", directory: "", checksumkind: CSK_MD5, checksum: "484b7adbbc849bb51cdbcb2d985b07a0")
!280 = !DISubroutineType(types: !281)
!281 = !{!275, !11}
!282 = !DIImportedEntity(tag: DW_TAG_imported_declaration, scope: !2, entity: !283, file: !273, line: 144)
!283 = !DISubprogram(name: "fgetwc", scope: !279, file: !279, line: 744, type: !284, flags: DIFlagPrototyped, spFlags: 0)
!284 = !DISubroutineType(types: !285)
!285 = !{!275, !286}
!286 = !DIDerivedType(tag: DW_TAG_pointer_type, baseType: !287, size: 64)
!287 = !DIDerivedType(tag: DW_TAG_typedef, name: "__FILE", file: !288, line: 5, baseType: !289)
!288 = !DIFile(filename: "/usr/include/x86_64-linux-gnu/bits/types/__FILE.h", directory: "", checksumkind: CSK_MD5, checksum: "72a8fe90981f484acae7c6f3dfc5c2b7")
!289 = !DICompositeType(tag: DW_TAG_structure_type, name: "_IO_FILE", file: !290, line: 49, size: 1728, flags: DIFlagFwdDecl, identifier: "_ZTS8_IO_FILE")
!290 = !DIFile(filename: "/usr/include/x86_64-linux-gnu/bits/types/struct_FILE.h", directory: "", checksumkind: CSK_MD5, checksum: "1bad07471b7974df4ecc1d1c2ca207e6")
!291 = !DIImportedEntity(tag: DW_TAG_imported_declaration, scope: !2, entity: !292, file: !273, line: 145)
!292 = !DISubprogram(name: "fgetws", scope: !279, file: !279, line: 773, type: !293, flags: DIFlagPrototyped, spFlags: 0)
!293 = !DISubroutineType(types: !294)
!294 = !{!114, !113, !11, !295}
!295 = !DIDerivedType(tag: DW_TAG_restrict_type, baseType: !286)
!296 = !DIImportedEntity(tag: DW_TAG_imported_declaration, scope: !2, entity: !297, file: !273, line: 146)
!297 = !DISubprogram(name: "fputwc", scope: !279, file: !279, line: 758, type: !298, flags: DIFlagPrototyped, spFlags: 0)
!298 = !DISubroutineType(types: !299)
!299 = !{!275, !115, !286}
!300 = !DIImportedEntity(tag: DW_TAG_imported_declaration, scope: !2, entity: !301, file: !273, line: 147)
!301 = !DISubprogram(name: "fputws", scope: !279, file: !279, line: 780, type: !302, flags: DIFlagPrototyped, spFlags: 0)
!302 = !DISubroutineType(types: !303)
!303 = !{!11, !161, !295}
!304 = !DIImportedEntity(tag: DW_TAG_imported_declaration, scope: !2, entity: !305, file: !273, line: 148)
!305 = !DISubprogram(name: "fwide", scope: !279, file: !279, line: 588, type: !306, flags: DIFlagPrototyped, spFlags: 0)
!306 = !DISubroutineType(types: !307)
!307 = !{!11, !286, !11}
!308 = !DIImportedEntity(tag: DW_TAG_imported_declaration, scope: !2, entity: !309, file: !273, line: 149)
!309 = !DISubprogram(name: "fwprintf", scope: !279, file: !279, line: 595, type: !310, flags: DIFlagPrototyped, spFlags: 0)
!310 = !DISubroutineType(types: !311)
!311 = !{!11, !295, !161, null}
!312 = !DIImportedEntity(tag: DW_TAG_imported_declaration, scope: !2, entity: !313, file: !273, line: 150)
!313 = !DISubprogram(name: "fwscanf", linkageName: "__isoc99_fwscanf", scope: !279, file: !279, line: 657, type: !310, flags: DIFlagPrototyped, spFlags: 0)
!314 = !DIImportedEntity(tag: DW_TAG_imported_declaration, scope: !2, entity: !315, file: !273, line: 151)
!315 = !DISubprogram(name: "getwc", scope: !279, file: !279, line: 745, type: !284, flags: DIFlagPrototyped, spFlags: 0)
!316 = !DIImportedEntity(tag: DW_TAG_imported_declaration, scope: !2, entity: !317, file: !273, line: 152)
!317 = !DISubprogram(name: "getwchar", scope: !279, file: !279, line: 751, type: !318, flags: DIFlagPrototyped, spFlags: 0)
!318 = !DISubroutineType(types: !319)
!319 = !{!275}
!320 = !DIImportedEntity(tag: DW_TAG_imported_declaration, scope: !2, entity: !321, file: !273, line: 153)
!321 = !DISubprogram(name: "mbrlen", scope: !279, file: !279, line: 308, type: !322, flags: DIFlagPrototyped, spFlags: 0)
!322 = !DISubroutineType(types: !323)
!323 = !{!65, !116, !65, !324}
!324 = !DIDerivedType(tag: DW_TAG_restrict_type, baseType: !325)
!325 = !DIDerivedType(tag: DW_TAG_pointer_type, baseType: !258, size: 64)
!326 = !DIImportedEntity(tag: DW_TAG_imported_declaration, scope: !2, entity: !327, file: !273, line: 154)
!327 = !DISubprogram(name: "mbrtowc", scope: !279, file: !279, line: 297, type: !328, flags: DIFlagPrototyped, spFlags: 0)
!328 = !DISubroutineType(types: !329)
!329 = !{!65, !113, !116, !65, !324}
!330 = !DIImportedEntity(tag: DW_TAG_imported_declaration, scope: !2, entity: !331, file: !273, line: 155)
!331 = !DISubprogram(name: "mbsinit", scope: !279, file: !279, line: 293, type: !332, flags: DIFlagPrototyped, spFlags: 0)
!332 = !DISubroutineType(types: !333)
!333 = !{!11, !334}
!334 = !DIDerivedType(tag: DW_TAG_pointer_type, baseType: !335, size: 64)
!335 = !DIDerivedType(tag: DW_TAG_const_type, baseType: !258)
!336 = !DIImportedEntity(tag: DW_TAG_imported_declaration, scope: !2, entity: !337, file: !273, line: 156)
!337 = !DISubprogram(name: "mbsrtowcs", scope: !279, file: !279, line: 338, type: !338, flags: DIFlagPrototyped, spFlags: 0)
!338 = !DISubroutineType(types: !339)
!339 = !{!65, !113, !340, !65, !324}
!340 = !DIDerivedType(tag: DW_TAG_restrict_type, baseType: !341)
!341 = !DIDerivedType(tag: DW_TAG_pointer_type, baseType: !47, size: 64)
!342 = !DIImportedEntity(tag: DW_TAG_imported_declaration, scope: !2, entity: !343, file: !273, line: 157)
!343 = !DISubprogram(name: "putwc", scope: !279, file: !279, line: 759, type: !298, flags: DIFlagPrototyped, spFlags: 0)
!344 = !DIImportedEntity(tag: DW_TAG_imported_declaration, scope: !2, entity: !345, file: !273, line: 158)
!345 = !DISubprogram(name: "putwchar", scope: !279, file: !279, line: 765, type: !346, flags: DIFlagPrototyped, spFlags: 0)
!346 = !DISubroutineType(types: !347)
!347 = !{!275, !115}
!348 = !DIImportedEntity(tag: DW_TAG_imported_declaration, scope: !2, entity: !349, file: !273, line: 160)
!349 = !DISubprogram(name: "swprintf", scope: !279, file: !279, line: 605, type: !350, flags: DIFlagPrototyped, spFlags: 0)
!350 = !DISubroutineType(types: !351)
!351 = !{!11, !113, !65, !161, null}
!352 = !DIImportedEntity(tag: DW_TAG_imported_declaration, scope: !2, entity: !353, file: !273, line: 162)
!353 = !DISubprogram(name: "swscanf", linkageName: "__isoc99_swscanf", scope: !279, file: !279, line: 664, type: !354, flags: DIFlagPrototyped, spFlags: 0)
!354 = !DISubroutineType(types: !355)
!355 = !{!11, !161, !161, null}
!356 = !DIImportedEntity(tag: DW_TAG_imported_declaration, scope: !2, entity: !357, file: !273, line: 163)
!357 = !DISubprogram(name: "ungetwc", scope: !279, file: !279, line: 788, type: !358, flags: DIFlagPrototyped, spFlags: 0)
!358 = !DISubroutineType(types: !359)
!359 = !{!275, !275, !286}
!360 = !DIImportedEntity(tag: DW_TAG_imported_declaration, scope: !2, entity: !361, file: !273, line: 164)
!361 = !DISubprogram(name: "vfwprintf", scope: !279, file: !279, line: 613, type: !362, flags: DIFlagPrototyped, spFlags: 0)
!362 = !DISubroutineType(types: !363)
!363 = !{!11, !295, !161, !364}
!364 = !DIDerivedType(tag: DW_TAG_pointer_type, baseType: !365, size: 64)
!365 = distinct !DICompositeType(tag: DW_TAG_structure_type, name: "__va_list_tag", size: 192, flags: DIFlagTypePassByValue, elements: !366, identifier: "_ZTS13__va_list_tag")
!366 = !{!367, !369, !370, !371}
!367 = !DIDerivedType(tag: DW_TAG_member, name: "gp_offset", scope: !365, file: !368, baseType: !139, size: 32)
!368 = !DIFile(filename: "Quicksort.cpp", directory: "/home/mani/Desktop/ToyMLIR/instructors/Assignment5/TestCases/Quicksort")
!369 = !DIDerivedType(tag: DW_TAG_member, name: "fp_offset", scope: !365, file: !368, baseType: !139, size: 32, offset: 32)
!370 = !DIDerivedType(tag: DW_TAG_member, name: "overflow_arg_area", scope: !365, file: !368, baseType: !62, size: 64, offset: 64)
!371 = !DIDerivedType(tag: DW_TAG_member, name: "reg_save_area", scope: !365, file: !368, baseType: !62, size: 64, offset: 128)
!372 = !DIImportedEntity(tag: DW_TAG_imported_declaration, scope: !2, entity: !373, file: !273, line: 166)
!373 = !DISubprogram(name: "vfwscanf", linkageName: "__isoc99_vfwscanf", scope: !279, file: !279, line: 711, type: !362, flags: DIFlagPrototyped, spFlags: 0)
!374 = !DIImportedEntity(tag: DW_TAG_imported_declaration, scope: !2, entity: !375, file: !273, line: 169)
!375 = !DISubprogram(name: "vswprintf", scope: !279, file: !279, line: 626, type: !376, flags: DIFlagPrototyped, spFlags: 0)
!376 = !DISubroutineType(types: !377)
!377 = !{!11, !113, !65, !161, !364}
!378 = !DIImportedEntity(tag: DW_TAG_imported_declaration, scope: !2, entity: !379, file: !273, line: 172)
!379 = !DISubprogram(name: "vswscanf", linkageName: "__isoc99_vswscanf", scope: !279, file: !279, line: 718, type: !380, flags: DIFlagPrototyped, spFlags: 0)
!380 = !DISubroutineType(types: !381)
!381 = !{!11, !161, !161, !364}
!382 = !DIImportedEntity(tag: DW_TAG_imported_declaration, scope: !2, entity: !383, file: !273, line: 174)
!383 = !DISubprogram(name: "vwprintf", scope: !279, file: !279, line: 621, type: !384, flags: DIFlagPrototyped, spFlags: 0)
!384 = !DISubroutineType(types: !385)
!385 = !{!11, !161, !364}
!386 = !DIImportedEntity(tag: DW_TAG_imported_declaration, scope: !2, entity: !387, file: !273, line: 176)
!387 = !DISubprogram(name: "vwscanf", linkageName: "__isoc99_vwscanf", scope: !279, file: !279, line: 715, type: !384, flags: DIFlagPrototyped, spFlags: 0)
!388 = !DIImportedEntity(tag: DW_TAG_imported_declaration, scope: !2, entity: !389, file: !273, line: 178)
!389 = !DISubprogram(name: "wcrtomb", scope: !279, file: !279, line: 302, type: !390, flags: DIFlagPrototyped, spFlags: 0)
!390 = !DISubroutineType(types: !391)
!391 = !{!65, !160, !115, !324}
!392 = !DIImportedEntity(tag: DW_TAG_imported_declaration, scope: !2, entity: !393, file: !273, line: 179)
!393 = !DISubprogram(name: "wcscat", scope: !279, file: !279, line: 97, type: !394, flags: DIFlagPrototyped, spFlags: 0)
!394 = !DISubroutineType(types: !395)
!395 = !{!114, !113, !161}
!396 = !DIImportedEntity(tag: DW_TAG_imported_declaration, scope: !2, entity: !397, file: !273, line: 180)
!397 = !DISubprogram(name: "wcscmp", scope: !279, file: !279, line: 106, type: !398, flags: DIFlagPrototyped, spFlags: 0)
!398 = !DISubroutineType(types: !399)
!399 = !{!11, !162, !162}
!400 = !DIImportedEntity(tag: DW_TAG_imported_declaration, scope: !2, entity: !401, file: !273, line: 181)
!401 = !DISubprogram(name: "wcscoll", scope: !279, file: !279, line: 131, type: !398, flags: DIFlagPrototyped, spFlags: 0)
!402 = !DIImportedEntity(tag: DW_TAG_imported_declaration, scope: !2, entity: !403, file: !273, line: 182)
!403 = !DISubprogram(name: "wcscpy", scope: !279, file: !279, line: 87, type: !394, flags: DIFlagPrototyped, spFlags: 0)
!404 = !DIImportedEntity(tag: DW_TAG_imported_declaration, scope: !2, entity: !405, file: !273, line: 183)
!405 = !DISubprogram(name: "wcscspn", scope: !279, file: !279, line: 188, type: !406, flags: DIFlagPrototyped, spFlags: 0)
!406 = !DISubroutineType(types: !407)
!407 = !{!65, !162, !162}
!408 = !DIImportedEntity(tag: DW_TAG_imported_declaration, scope: !2, entity: !409, file: !273, line: 184)
!409 = !DISubprogram(name: "wcsftime", scope: !279, file: !279, line: 852, type: !410, flags: DIFlagPrototyped, spFlags: 0)
!410 = !DISubroutineType(types: !411)
!411 = !{!65, !113, !65, !161, !412}
!412 = !DIDerivedType(tag: DW_TAG_restrict_type, baseType: !413)
!413 = !DIDerivedType(tag: DW_TAG_pointer_type, baseType: !414, size: 64)
!414 = !DIDerivedType(tag: DW_TAG_const_type, baseType: !415)
!415 = !DICompositeType(tag: DW_TAG_structure_type, name: "tm", file: !279, line: 83, flags: DIFlagFwdDecl | DIFlagNonTrivial, identifier: "_ZTS2tm")
!416 = !DIImportedEntity(tag: DW_TAG_imported_declaration, scope: !2, entity: !417, file: !273, line: 185)
!417 = !DISubprogram(name: "wcslen", scope: !279, file: !279, line: 223, type: !418, flags: DIFlagPrototyped, spFlags: 0)
!418 = !DISubroutineType(types: !419)
!419 = !{!65, !162}
!420 = !DIImportedEntity(tag: DW_TAG_imported_declaration, scope: !2, entity: !421, file: !273, line: 186)
!421 = !DISubprogram(name: "wcsncat", scope: !279, file: !279, line: 101, type: !422, flags: DIFlagPrototyped, spFlags: 0)
!422 = !DISubroutineType(types: !423)
!423 = !{!114, !113, !161, !65}
!424 = !DIImportedEntity(tag: DW_TAG_imported_declaration, scope: !2, entity: !425, file: !273, line: 187)
!425 = !DISubprogram(name: "wcsncmp", scope: !279, file: !279, line: 109, type: !426, flags: DIFlagPrototyped, spFlags: 0)
!426 = !DISubroutineType(types: !427)
!427 = !{!11, !162, !162, !65}
!428 = !DIImportedEntity(tag: DW_TAG_imported_declaration, scope: !2, entity: !429, file: !273, line: 188)
!429 = !DISubprogram(name: "wcsncpy", scope: !279, file: !279, line: 92, type: !422, flags: DIFlagPrototyped, spFlags: 0)
!430 = !DIImportedEntity(tag: DW_TAG_imported_declaration, scope: !2, entity: !431, file: !273, line: 189)
!431 = !DISubprogram(name: "wcsrtombs", scope: !279, file: !279, line: 344, type: !432, flags: DIFlagPrototyped, spFlags: 0)
!432 = !DISubroutineType(types: !433)
!433 = !{!65, !160, !434, !65, !324}
!434 = !DIDerivedType(tag: DW_TAG_restrict_type, baseType: !435)
!435 = !DIDerivedType(tag: DW_TAG_pointer_type, baseType: !162, size: 64)
!436 = !DIImportedEntity(tag: DW_TAG_imported_declaration, scope: !2, entity: !437, file: !273, line: 190)
!437 = !DISubprogram(name: "wcsspn", scope: !279, file: !279, line: 192, type: !406, flags: DIFlagPrototyped, spFlags: 0)
!438 = !DIImportedEntity(tag: DW_TAG_imported_declaration, scope: !2, entity: !439, file: !273, line: 191)
!439 = !DISubprogram(name: "wcstod", scope: !279, file: !279, line: 378, type: !440, flags: DIFlagPrototyped, spFlags: 0)
!440 = !DISubroutineType(types: !441)
!441 = !{!46, !161, !442}
!442 = !DIDerivedType(tag: DW_TAG_restrict_type, baseType: !443)
!443 = !DIDerivedType(tag: DW_TAG_pointer_type, baseType: !114, size: 64)
!444 = !DIImportedEntity(tag: DW_TAG_imported_declaration, scope: !2, entity: !445, file: !273, line: 193)
!445 = !DISubprogram(name: "wcstof", scope: !279, file: !279, line: 383, type: !446, flags: DIFlagPrototyped, spFlags: 0)
!446 = !DISubroutineType(types: !447)
!447 = !{!203, !161, !442}
!448 = !DIImportedEntity(tag: DW_TAG_imported_declaration, scope: !2, entity: !449, file: !273, line: 195)
!449 = !DISubprogram(name: "wcstok", scope: !279, file: !279, line: 218, type: !450, flags: DIFlagPrototyped, spFlags: 0)
!450 = !DISubroutineType(types: !451)
!451 = !{!114, !113, !161, !442}
!452 = !DIImportedEntity(tag: DW_TAG_imported_declaration, scope: !2, entity: !453, file: !273, line: 196)
!453 = !DISubprogram(name: "wcstol", scope: !279, file: !279, line: 429, type: !454, flags: DIFlagPrototyped, spFlags: 0)
!454 = !DISubroutineType(types: !455)
!455 = !{!29, !161, !442, !11}
!456 = !DIImportedEntity(tag: DW_TAG_imported_declaration, scope: !2, entity: !457, file: !273, line: 197)
!457 = !DISubprogram(name: "wcstoul", scope: !279, file: !279, line: 434, type: !458, flags: DIFlagPrototyped, spFlags: 0)
!458 = !DISubroutineType(types: !459)
!459 = !{!67, !161, !442, !11}
!460 = !DIImportedEntity(tag: DW_TAG_imported_declaration, scope: !2, entity: !461, file: !273, line: 198)
!461 = !DISubprogram(name: "wcsxfrm", scope: !279, file: !279, line: 135, type: !462, flags: DIFlagPrototyped, spFlags: 0)
!462 = !DISubroutineType(types: !463)
!463 = !{!65, !113, !161, !65}
!464 = !DIImportedEntity(tag: DW_TAG_imported_declaration, scope: !2, entity: !465, file: !273, line: 199)
!465 = !DISubprogram(name: "wctob", scope: !279, file: !279, line: 289, type: !466, flags: DIFlagPrototyped, spFlags: 0)
!466 = !DISubroutineType(types: !467)
!467 = !{!11, !275}
!468 = !DIImportedEntity(tag: DW_TAG_imported_declaration, scope: !2, entity: !469, file: !273, line: 200)
!469 = !DISubprogram(name: "wmemcmp", scope: !279, file: !279, line: 259, type: !426, flags: DIFlagPrototyped, spFlags: 0)
!470 = !DIImportedEntity(tag: DW_TAG_imported_declaration, scope: !2, entity: !471, file: !273, line: 201)
!471 = !DISubprogram(name: "wmemcpy", scope: !279, file: !279, line: 263, type: !422, flags: DIFlagPrototyped, spFlags: 0)
!472 = !DIImportedEntity(tag: DW_TAG_imported_declaration, scope: !2, entity: !473, file: !273, line: 202)
!473 = !DISubprogram(name: "wmemmove", scope: !279, file: !279, line: 268, type: !474, flags: DIFlagPrototyped, spFlags: 0)
!474 = !DISubroutineType(types: !475)
!475 = !{!114, !114, !162, !65}
!476 = !DIImportedEntity(tag: DW_TAG_imported_declaration, scope: !2, entity: !477, file: !273, line: 203)
!477 = !DISubprogram(name: "wmemset", scope: !279, file: !279, line: 272, type: !478, flags: DIFlagPrototyped, spFlags: 0)
!478 = !DISubroutineType(types: !479)
!479 = !{!114, !114, !115, !65}
!480 = !DIImportedEntity(tag: DW_TAG_imported_declaration, scope: !2, entity: !481, file: !273, line: 204)
!481 = !DISubprogram(name: "wprintf", scope: !279, file: !279, line: 602, type: !482, flags: DIFlagPrototyped, spFlags: 0)
!482 = !DISubroutineType(types: !483)
!483 = !{!11, !161, null}
!484 = !DIImportedEntity(tag: DW_TAG_imported_declaration, scope: !2, entity: !485, file: !273, line: 205)
!485 = !DISubprogram(name: "wscanf", linkageName: "__isoc99_wscanf", scope: !279, file: !279, line: 661, type: !482, flags: DIFlagPrototyped, spFlags: 0)
!486 = !DIImportedEntity(tag: DW_TAG_imported_declaration, scope: !2, entity: !487, file: !273, line: 206)
!487 = !DISubprogram(name: "wcschr", scope: !279, file: !279, line: 165, type: !488, flags: DIFlagPrototyped, spFlags: 0)
!488 = !DISubroutineType(types: !489)
!489 = !{!114, !162, !115}
!490 = !DIImportedEntity(tag: DW_TAG_imported_declaration, scope: !2, entity: !491, file: !273, line: 207)
!491 = !DISubprogram(name: "wcspbrk", scope: !279, file: !279, line: 202, type: !492, flags: DIFlagPrototyped, spFlags: 0)
!492 = !DISubroutineType(types: !493)
!493 = !{!114, !162, !162}
!494 = !DIImportedEntity(tag: DW_TAG_imported_declaration, scope: !2, entity: !495, file: !273, line: 208)
!495 = !DISubprogram(name: "wcsrchr", scope: !279, file: !279, line: 175, type: !488, flags: DIFlagPrototyped, spFlags: 0)
!496 = !DIImportedEntity(tag: DW_TAG_imported_declaration, scope: !2, entity: !497, file: !273, line: 209)
!497 = !DISubprogram(name: "wcsstr", scope: !279, file: !279, line: 213, type: !492, flags: DIFlagPrototyped, spFlags: 0)
!498 = !DIImportedEntity(tag: DW_TAG_imported_declaration, scope: !2, entity: !499, file: !273, line: 210)
!499 = !DISubprogram(name: "wmemchr", scope: !279, file: !279, line: 254, type: !500, flags: DIFlagPrototyped, spFlags: 0)
!500 = !DISubroutineType(types: !501)
!501 = !{!114, !162, !115, !65}
!502 = !DIImportedEntity(tag: DW_TAG_imported_declaration, scope: !169, entity: !503, file: !273, line: 251)
!503 = !DISubprogram(name: "wcstold", scope: !279, file: !279, line: 385, type: !504, flags: DIFlagPrototyped, spFlags: 0)
!504 = !DISubroutineType(types: !505)
!505 = !{!208, !161, !442}
!506 = !DIImportedEntity(tag: DW_TAG_imported_declaration, scope: !169, entity: !507, file: !273, line: 260)
!507 = !DISubprogram(name: "wcstoll", scope: !279, file: !279, line: 442, type: !508, flags: DIFlagPrototyped, spFlags: 0)
!508 = !DISubroutineType(types: !509)
!509 = !{!174, !161, !442, !11}
!510 = !DIImportedEntity(tag: DW_TAG_imported_declaration, scope: !169, entity: !511, file: !273, line: 261)
!511 = !DISubprogram(name: "wcstoull", scope: !279, file: !279, line: 449, type: !512, flags: DIFlagPrototyped, spFlags: 0)
!512 = !DISubroutineType(types: !513)
!513 = !{!198, !161, !442, !11}
!514 = !DIImportedEntity(tag: DW_TAG_imported_declaration, scope: !2, entity: !503, file: !273, line: 267)
!515 = !DIImportedEntity(tag: DW_TAG_imported_declaration, scope: !2, entity: !507, file: !273, line: 268)
!516 = !DIImportedEntity(tag: DW_TAG_imported_declaration, scope: !2, entity: !511, file: !273, line: 269)
!517 = !DIImportedEntity(tag: DW_TAG_imported_declaration, scope: !2, entity: !445, file: !273, line: 283)
!518 = !DIImportedEntity(tag: DW_TAG_imported_declaration, scope: !2, entity: !373, file: !273, line: 286)
!519 = !DIImportedEntity(tag: DW_TAG_imported_declaration, scope: !2, entity: !379, file: !273, line: 289)
!520 = !DIImportedEntity(tag: DW_TAG_imported_declaration, scope: !2, entity: !387, file: !273, line: 292)
!521 = !DIImportedEntity(tag: DW_TAG_imported_declaration, scope: !2, entity: !503, file: !273, line: 296)
!522 = !DIImportedEntity(tag: DW_TAG_imported_declaration, scope: !2, entity: !507, file: !273, line: 297)
!523 = !DIImportedEntity(tag: DW_TAG_imported_declaration, scope: !2, entity: !511, file: !273, line: 298)
!524 = !DIImportedEntity(tag: DW_TAG_imported_declaration, scope: !2, entity: !525, file: !526, line: 68)
!525 = !DICompositeType(tag: DW_TAG_class_type, name: "exception_ptr", scope: !527, file: !526, line: 90, size: 64, flags: DIFlagFwdDecl | DIFlagNonTrivial, identifier: "_ZTSNSt15__exception_ptr13exception_ptrE")
!526 = !DIFile(filename: "/usr/bin/../lib/gcc/x86_64-linux-gnu/11/../../../../include/c++/11/bits/exception_ptr.h", directory: "", checksumkind: CSK_MD5, checksum: "ed433011c81450fc2dabd9aa8a29a038")
!527 = !DINamespace(name: "__exception_ptr", scope: !2)
!528 = !DIImportedEntity(tag: DW_TAG_imported_declaration, scope: !527, entity: !529, file: !526, line: 84)
!529 = !DISubprogram(name: "rethrow_exception", linkageName: "_ZSt17rethrow_exceptionNSt15__exception_ptr13exception_ptrE", scope: !2, file: !526, line: 80, type: !530, flags: DIFlagPrototyped | DIFlagNoReturn, spFlags: 0)
!530 = !DISubroutineType(types: !531)
!531 = !{null, !525}
!532 = !DIImportedEntity(tag: DW_TAG_imported_module, scope: !533, entity: !534, file: !535, line: 58)
!533 = !DINamespace(name: "__gnu_debug", scope: null)
!534 = !DINamespace(name: "__debug", scope: !2)
!535 = !DIFile(filename: "/usr/bin/../lib/gcc/x86_64-linux-gnu/11/../../../../include/c++/11/debug/debug.h", directory: "", checksumkind: CSK_MD5, checksum: "982c0103e1e5f86b0818efdfc5273c3c")
!536 = !DIImportedEntity(tag: DW_TAG_imported_declaration, scope: !2, entity: !537, file: !542, line: 47)
!537 = !DIDerivedType(tag: DW_TAG_typedef, name: "int8_t", file: !538, line: 24, baseType: !539)
!538 = !DIFile(filename: "/usr/include/x86_64-linux-gnu/bits/stdint-intn.h", directory: "", checksumkind: CSK_MD5, checksum: "55bcbdc3159515ebd91d351a70d505f4")
!539 = !DIDerivedType(tag: DW_TAG_typedef, name: "__int8_t", file: !540, line: 37, baseType: !541)
!540 = !DIFile(filename: "/usr/include/x86_64-linux-gnu/bits/types.h", directory: "", checksumkind: CSK_MD5, checksum: "d108b5f93a74c50510d7d9bc0ab36df9")
!541 = !DIBasicType(name: "signed char", size: 8, encoding: DW_ATE_signed_char)
!542 = !DIFile(filename: "/usr/bin/../lib/gcc/x86_64-linux-gnu/11/../../../../include/c++/11/cstdint", directory: "")
!543 = !DIImportedEntity(tag: DW_TAG_imported_declaration, scope: !2, entity: !544, file: !542, line: 48)
!544 = !DIDerivedType(tag: DW_TAG_typedef, name: "int16_t", file: !538, line: 25, baseType: !545)
!545 = !DIDerivedType(tag: DW_TAG_typedef, name: "__int16_t", file: !540, line: 39, baseType: !546)
!546 = !DIBasicType(name: "short", size: 16, encoding: DW_ATE_signed)
!547 = !DIImportedEntity(tag: DW_TAG_imported_declaration, scope: !2, entity: !548, file: !542, line: 49)
!548 = !DIDerivedType(tag: DW_TAG_typedef, name: "int32_t", file: !538, line: 26, baseType: !549)
!549 = !DIDerivedType(tag: DW_TAG_typedef, name: "__int32_t", file: !540, line: 41, baseType: !11)
!550 = !DIImportedEntity(tag: DW_TAG_imported_declaration, scope: !2, entity: !551, file: !542, line: 50)
!551 = !DIDerivedType(tag: DW_TAG_typedef, name: "int64_t", file: !538, line: 27, baseType: !552)
!552 = !DIDerivedType(tag: DW_TAG_typedef, name: "__int64_t", file: !540, line: 44, baseType: !29)
!553 = !DIImportedEntity(tag: DW_TAG_imported_declaration, scope: !2, entity: !554, file: !542, line: 52)
!554 = !DIDerivedType(tag: DW_TAG_typedef, name: "int_fast8_t", file: !555, line: 58, baseType: !541)
!555 = !DIFile(filename: "/usr/include/stdint.h", directory: "", checksumkind: CSK_MD5, checksum: "a48e64edacc5b19f56c99745232c963c")
!556 = !DIImportedEntity(tag: DW_TAG_imported_declaration, scope: !2, entity: !557, file: !542, line: 53)
!557 = !DIDerivedType(tag: DW_TAG_typedef, name: "int_fast16_t", file: !555, line: 60, baseType: !29)
!558 = !DIImportedEntity(tag: DW_TAG_imported_declaration, scope: !2, entity: !559, file: !542, line: 54)
!559 = !DIDerivedType(tag: DW_TAG_typedef, name: "int_fast32_t", file: !555, line: 61, baseType: !29)
!560 = !DIImportedEntity(tag: DW_TAG_imported_declaration, scope: !2, entity: !561, file: !542, line: 55)
!561 = !DIDerivedType(tag: DW_TAG_typedef, name: "int_fast64_t", file: !555, line: 62, baseType: !29)
!562 = !DIImportedEntity(tag: DW_TAG_imported_declaration, scope: !2, entity: !563, file: !542, line: 57)
!563 = !DIDerivedType(tag: DW_TAG_typedef, name: "int_least8_t", file: !555, line: 43, baseType: !564)
!564 = !DIDerivedType(tag: DW_TAG_typedef, name: "__int_least8_t", file: !540, line: 52, baseType: !539)
!565 = !DIImportedEntity(tag: DW_TAG_imported_declaration, scope: !2, entity: !566, file: !542, line: 58)
!566 = !DIDerivedType(tag: DW_TAG_typedef, name: "int_least16_t", file: !555, line: 44, baseType: !567)
!567 = !DIDerivedType(tag: DW_TAG_typedef, name: "__int_least16_t", file: !540, line: 54, baseType: !545)
!568 = !DIImportedEntity(tag: DW_TAG_imported_declaration, scope: !2, entity: !569, file: !542, line: 59)
!569 = !DIDerivedType(tag: DW_TAG_typedef, name: "int_least32_t", file: !555, line: 45, baseType: !570)
!570 = !DIDerivedType(tag: DW_TAG_typedef, name: "__int_least32_t", file: !540, line: 56, baseType: !549)
!571 = !DIImportedEntity(tag: DW_TAG_imported_declaration, scope: !2, entity: !572, file: !542, line: 60)
!572 = !DIDerivedType(tag: DW_TAG_typedef, name: "int_least64_t", file: !555, line: 46, baseType: !573)
!573 = !DIDerivedType(tag: DW_TAG_typedef, name: "__int_least64_t", file: !540, line: 58, baseType: !552)
!574 = !DIImportedEntity(tag: DW_TAG_imported_declaration, scope: !2, entity: !575, file: !542, line: 62)
!575 = !DIDerivedType(tag: DW_TAG_typedef, name: "intmax_t", file: !555, line: 101, baseType: !576)
!576 = !DIDerivedType(tag: DW_TAG_typedef, name: "__intmax_t", file: !540, line: 72, baseType: !29)
!577 = !DIImportedEntity(tag: DW_TAG_imported_declaration, scope: !2, entity: !578, file: !542, line: 63)
!578 = !DIDerivedType(tag: DW_TAG_typedef, name: "intptr_t", file: !555, line: 87, baseType: !29)
!579 = !DIImportedEntity(tag: DW_TAG_imported_declaration, scope: !2, entity: !580, file: !542, line: 65)
!580 = !DIDerivedType(tag: DW_TAG_typedef, name: "uint8_t", file: !581, line: 24, baseType: !582)
!581 = !DIFile(filename: "/usr/include/x86_64-linux-gnu/bits/stdint-uintn.h", directory: "", checksumkind: CSK_MD5, checksum: "2bf2ae53c58c01b1a1b9383b5195125c")
!582 = !DIDerivedType(tag: DW_TAG_typedef, name: "__uint8_t", file: !540, line: 38, baseType: !583)
!583 = !DIBasicType(name: "unsigned char", size: 8, encoding: DW_ATE_unsigned_char)
!584 = !DIImportedEntity(tag: DW_TAG_imported_declaration, scope: !2, entity: !585, file: !542, line: 66)
!585 = !DIDerivedType(tag: DW_TAG_typedef, name: "uint16_t", file: !581, line: 25, baseType: !586)
!586 = !DIDerivedType(tag: DW_TAG_typedef, name: "__uint16_t", file: !540, line: 40, baseType: !587)
!587 = !DIBasicType(name: "unsigned short", size: 16, encoding: DW_ATE_unsigned)
!588 = !DIImportedEntity(tag: DW_TAG_imported_declaration, scope: !2, entity: !589, file: !542, line: 67)
!589 = !DIDerivedType(tag: DW_TAG_typedef, name: "uint32_t", file: !581, line: 26, baseType: !590)
!590 = !DIDerivedType(tag: DW_TAG_typedef, name: "__uint32_t", file: !540, line: 42, baseType: !139)
!591 = !DIImportedEntity(tag: DW_TAG_imported_declaration, scope: !2, entity: !592, file: !542, line: 68)
!592 = !DIDerivedType(tag: DW_TAG_typedef, name: "uint64_t", file: !581, line: 27, baseType: !593)
!593 = !DIDerivedType(tag: DW_TAG_typedef, name: "__uint64_t", file: !540, line: 45, baseType: !67)
!594 = !DIImportedEntity(tag: DW_TAG_imported_declaration, scope: !2, entity: !595, file: !542, line: 70)
!595 = !DIDerivedType(tag: DW_TAG_typedef, name: "uint_fast8_t", file: !555, line: 71, baseType: !583)
!596 = !DIImportedEntity(tag: DW_TAG_imported_declaration, scope: !2, entity: !597, file: !542, line: 71)
!597 = !DIDerivedType(tag: DW_TAG_typedef, name: "uint_fast16_t", file: !555, line: 73, baseType: !67)
!598 = !DIImportedEntity(tag: DW_TAG_imported_declaration, scope: !2, entity: !599, file: !542, line: 72)
!599 = !DIDerivedType(tag: DW_TAG_typedef, name: "uint_fast32_t", file: !555, line: 74, baseType: !67)
!600 = !DIImportedEntity(tag: DW_TAG_imported_declaration, scope: !2, entity: !601, file: !542, line: 73)
!601 = !DIDerivedType(tag: DW_TAG_typedef, name: "uint_fast64_t", file: !555, line: 75, baseType: !67)
!602 = !DIImportedEntity(tag: DW_TAG_imported_declaration, scope: !2, entity: !603, file: !542, line: 75)
!603 = !DIDerivedType(tag: DW_TAG_typedef, name: "uint_least8_t", file: !555, line: 49, baseType: !604)
!604 = !DIDerivedType(tag: DW_TAG_typedef, name: "__uint_least8_t", file: !540, line: 53, baseType: !582)
!605 = !DIImportedEntity(tag: DW_TAG_imported_declaration, scope: !2, entity: !606, file: !542, line: 76)
!606 = !DIDerivedType(tag: DW_TAG_typedef, name: "uint_least16_t", file: !555, line: 50, baseType: !607)
!607 = !DIDerivedType(tag: DW_TAG_typedef, name: "__uint_least16_t", file: !540, line: 55, baseType: !586)
!608 = !DIImportedEntity(tag: DW_TAG_imported_declaration, scope: !2, entity: !609, file: !542, line: 77)
!609 = !DIDerivedType(tag: DW_TAG_typedef, name: "uint_least32_t", file: !555, line: 51, baseType: !610)
!610 = !DIDerivedType(tag: DW_TAG_typedef, name: "__uint_least32_t", file: !540, line: 57, baseType: !590)
!611 = !DIImportedEntity(tag: DW_TAG_imported_declaration, scope: !2, entity: !612, file: !542, line: 78)
!612 = !DIDerivedType(tag: DW_TAG_typedef, name: "uint_least64_t", file: !555, line: 52, baseType: !613)
!613 = !DIDerivedType(tag: DW_TAG_typedef, name: "__uint_least64_t", file: !540, line: 59, baseType: !593)
!614 = !DIImportedEntity(tag: DW_TAG_imported_declaration, scope: !2, entity: !615, file: !542, line: 80)
!615 = !DIDerivedType(tag: DW_TAG_typedef, name: "uintmax_t", file: !555, line: 102, baseType: !616)
!616 = !DIDerivedType(tag: DW_TAG_typedef, name: "__uintmax_t", file: !540, line: 73, baseType: !67)
!617 = !DIImportedEntity(tag: DW_TAG_imported_declaration, scope: !2, entity: !618, file: !542, line: 81)
!618 = !DIDerivedType(tag: DW_TAG_typedef, name: "uintptr_t", file: !555, line: 90, baseType: !67)
!619 = !DIImportedEntity(tag: DW_TAG_imported_declaration, scope: !2, entity: !620, file: !622, line: 53)
!620 = !DICompositeType(tag: DW_TAG_structure_type, name: "lconv", file: !621, line: 51, size: 768, flags: DIFlagFwdDecl, identifier: "_ZTS5lconv")
!621 = !DIFile(filename: "/usr/include/locale.h", directory: "", checksumkind: CSK_MD5, checksum: "a1d177e0f311dc60a74cb347049d75bc")
!622 = !DIFile(filename: "/usr/bin/../lib/gcc/x86_64-linux-gnu/11/../../../../include/c++/11/clocale", directory: "")
!623 = !DIImportedEntity(tag: DW_TAG_imported_declaration, scope: !2, entity: !624, file: !622, line: 54)
!624 = !DISubprogram(name: "setlocale", scope: !621, file: !621, line: 122, type: !625, flags: DIFlagPrototyped, spFlags: 0)
!625 = !DISubroutineType(types: !626)
!626 = !{!92, !11, !47}
!627 = !DIImportedEntity(tag: DW_TAG_imported_declaration, scope: !2, entity: !628, file: !622, line: 55)
!628 = !DISubprogram(name: "localeconv", scope: !621, file: !621, line: 125, type: !629, flags: DIFlagPrototyped, spFlags: 0)
!629 = !DISubroutineType(types: !630)
!630 = !{!631}
!631 = !DIDerivedType(tag: DW_TAG_pointer_type, baseType: !620, size: 64)
!632 = !DIImportedEntity(tag: DW_TAG_imported_declaration, scope: !2, entity: !633, file: !635, line: 64)
!633 = !DISubprogram(name: "isalnum", scope: !634, file: !634, line: 108, type: !17, flags: DIFlagPrototyped, spFlags: 0)
!634 = !DIFile(filename: "/usr/include/ctype.h", directory: "", checksumkind: CSK_MD5, checksum: "3ab3dd7fdf2578005732722ee2393e59")
!635 = !DIFile(filename: "/usr/bin/../lib/gcc/x86_64-linux-gnu/11/../../../../include/c++/11/cctype", directory: "")
!636 = !DIImportedEntity(tag: DW_TAG_imported_declaration, scope: !2, entity: !637, file: !635, line: 65)
!637 = !DISubprogram(name: "isalpha", scope: !634, file: !634, line: 109, type: !17, flags: DIFlagPrototyped, spFlags: 0)
!638 = !DIImportedEntity(tag: DW_TAG_imported_declaration, scope: !2, entity: !639, file: !635, line: 66)
!639 = !DISubprogram(name: "iscntrl", scope: !634, file: !634, line: 110, type: !17, flags: DIFlagPrototyped, spFlags: 0)
!640 = !DIImportedEntity(tag: DW_TAG_imported_declaration, scope: !2, entity: !641, file: !635, line: 67)
!641 = !DISubprogram(name: "isdigit", scope: !634, file: !634, line: 111, type: !17, flags: DIFlagPrototyped, spFlags: 0)
!642 = !DIImportedEntity(tag: DW_TAG_imported_declaration, scope: !2, entity: !643, file: !635, line: 68)
!643 = !DISubprogram(name: "isgraph", scope: !634, file: !634, line: 113, type: !17, flags: DIFlagPrototyped, spFlags: 0)
!644 = !DIImportedEntity(tag: DW_TAG_imported_declaration, scope: !2, entity: !645, file: !635, line: 69)
!645 = !DISubprogram(name: "islower", scope: !634, file: !634, line: 112, type: !17, flags: DIFlagPrototyped, spFlags: 0)
!646 = !DIImportedEntity(tag: DW_TAG_imported_declaration, scope: !2, entity: !647, file: !635, line: 70)
!647 = !DISubprogram(name: "isprint", scope: !634, file: !634, line: 114, type: !17, flags: DIFlagPrototyped, spFlags: 0)
!648 = !DIImportedEntity(tag: DW_TAG_imported_declaration, scope: !2, entity: !649, file: !635, line: 71)
!649 = !DISubprogram(name: "ispunct", scope: !634, file: !634, line: 115, type: !17, flags: DIFlagPrototyped, spFlags: 0)
!650 = !DIImportedEntity(tag: DW_TAG_imported_declaration, scope: !2, entity: !651, file: !635, line: 72)
!651 = !DISubprogram(name: "isspace", scope: !634, file: !634, line: 116, type: !17, flags: DIFlagPrototyped, spFlags: 0)
!652 = !DIImportedEntity(tag: DW_TAG_imported_declaration, scope: !2, entity: !653, file: !635, line: 73)
!653 = !DISubprogram(name: "isupper", scope: !634, file: !634, line: 117, type: !17, flags: DIFlagPrototyped, spFlags: 0)
!654 = !DIImportedEntity(tag: DW_TAG_imported_declaration, scope: !2, entity: !655, file: !635, line: 74)
!655 = !DISubprogram(name: "isxdigit", scope: !634, file: !634, line: 118, type: !17, flags: DIFlagPrototyped, spFlags: 0)
!656 = !DIImportedEntity(tag: DW_TAG_imported_declaration, scope: !2, entity: !657, file: !635, line: 75)
!657 = !DISubprogram(name: "tolower", scope: !634, file: !634, line: 122, type: !17, flags: DIFlagPrototyped, spFlags: 0)
!658 = !DIImportedEntity(tag: DW_TAG_imported_declaration, scope: !2, entity: !659, file: !635, line: 76)
!659 = !DISubprogram(name: "toupper", scope: !634, file: !634, line: 125, type: !17, flags: DIFlagPrototyped, spFlags: 0)
!660 = !DIImportedEntity(tag: DW_TAG_imported_declaration, scope: !2, entity: !661, file: !635, line: 87)
!661 = !DISubprogram(name: "isblank", scope: !634, file: !634, line: 130, type: !17, flags: DIFlagPrototyped, spFlags: 0)
!662 = !DIImportedEntity(tag: DW_TAG_imported_declaration, scope: !2, entity: !663, file: !665, line: 98)
!663 = !DIDerivedType(tag: DW_TAG_typedef, name: "FILE", file: !664, line: 7, baseType: !289)
!664 = !DIFile(filename: "/usr/include/x86_64-linux-gnu/bits/types/FILE.h", directory: "", checksumkind: CSK_MD5, checksum: "571f9fb6223c42439075fdde11a0de5d")
!665 = !DIFile(filename: "/usr/bin/../lib/gcc/x86_64-linux-gnu/11/../../../../include/c++/11/cstdio", directory: "")
!666 = !DIImportedEntity(tag: DW_TAG_imported_declaration, scope: !2, entity: !667, file: !665, line: 99)
!667 = !DIDerivedType(tag: DW_TAG_typedef, name: "fpos_t", file: !668, line: 84, baseType: !669)
!668 = !DIFile(filename: "/usr/include/stdio.h", directory: "", checksumkind: CSK_MD5, checksum: "f31eefcc3f15835fc5a4023a625cf609")
!669 = !DIDerivedType(tag: DW_TAG_typedef, name: "__fpos_t", file: !670, line: 14, baseType: !671)
!670 = !DIFile(filename: "/usr/include/x86_64-linux-gnu/bits/types/__fpos_t.h", directory: "", checksumkind: CSK_MD5, checksum: "32de8bdaf3551a6c0a9394f9af4389ce")
!671 = !DICompositeType(tag: DW_TAG_structure_type, name: "_G_fpos_t", file: !670, line: 10, size: 128, flags: DIFlagFwdDecl, identifier: "_ZTS9_G_fpos_t")
!672 = !DIImportedEntity(tag: DW_TAG_imported_declaration, scope: !2, entity: !673, file: !665, line: 101)
!673 = !DISubprogram(name: "clearerr", scope: !668, file: !668, line: 786, type: !674, flags: DIFlagPrototyped, spFlags: 0)
!674 = !DISubroutineType(types: !675)
!675 = !{null, !676}
!676 = !DIDerivedType(tag: DW_TAG_pointer_type, baseType: !663, size: 64)
!677 = !DIImportedEntity(tag: DW_TAG_imported_declaration, scope: !2, entity: !678, file: !665, line: 102)
!678 = !DISubprogram(name: "fclose", scope: !668, file: !668, line: 178, type: !679, flags: DIFlagPrototyped, spFlags: 0)
!679 = !DISubroutineType(types: !680)
!680 = !{!11, !676}
!681 = !DIImportedEntity(tag: DW_TAG_imported_declaration, scope: !2, entity: !682, file: !665, line: 103)
!682 = !DISubprogram(name: "feof", scope: !668, file: !668, line: 788, type: !679, flags: DIFlagPrototyped, spFlags: 0)
!683 = !DIImportedEntity(tag: DW_TAG_imported_declaration, scope: !2, entity: !684, file: !665, line: 104)
!684 = !DISubprogram(name: "ferror", scope: !668, file: !668, line: 790, type: !679, flags: DIFlagPrototyped, spFlags: 0)
!685 = !DIImportedEntity(tag: DW_TAG_imported_declaration, scope: !2, entity: !686, file: !665, line: 105)
!686 = !DISubprogram(name: "fflush", scope: !668, file: !668, line: 230, type: !679, flags: DIFlagPrototyped, spFlags: 0)
!687 = !DIImportedEntity(tag: DW_TAG_imported_declaration, scope: !2, entity: !688, file: !665, line: 106)
!688 = !DISubprogram(name: "fgetc", scope: !668, file: !668, line: 513, type: !679, flags: DIFlagPrototyped, spFlags: 0)
!689 = !DIImportedEntity(tag: DW_TAG_imported_declaration, scope: !2, entity: !690, file: !665, line: 107)
!690 = !DISubprogram(name: "fgetpos", scope: !668, file: !668, line: 760, type: !691, flags: DIFlagPrototyped, spFlags: 0)
!691 = !DISubroutineType(types: !692)
!692 = !{!11, !693, !694}
!693 = !DIDerivedType(tag: DW_TAG_restrict_type, baseType: !676)
!694 = !DIDerivedType(tag: DW_TAG_restrict_type, baseType: !695)
!695 = !DIDerivedType(tag: DW_TAG_pointer_type, baseType: !667, size: 64)
!696 = !DIImportedEntity(tag: DW_TAG_imported_declaration, scope: !2, entity: !697, file: !665, line: 108)
!697 = !DISubprogram(name: "fgets", scope: !668, file: !668, line: 592, type: !698, flags: DIFlagPrototyped, spFlags: 0)
!698 = !DISubroutineType(types: !699)
!699 = !{!92, !160, !11, !693}
!700 = !DIImportedEntity(tag: DW_TAG_imported_declaration, scope: !2, entity: !701, file: !665, line: 109)
!701 = !DISubprogram(name: "fopen", scope: !668, file: !668, line: 258, type: !702, flags: DIFlagPrototyped, spFlags: 0)
!702 = !DISubroutineType(types: !703)
!703 = !{!676, !116, !116}
!704 = !DIImportedEntity(tag: DW_TAG_imported_declaration, scope: !2, entity: !705, file: !665, line: 110)
!705 = !DISubprogram(name: "fprintf", scope: !668, file: !668, line: 350, type: !706, flags: DIFlagPrototyped, spFlags: 0)
!706 = !DISubroutineType(types: !707)
!707 = !{!11, !693, !116, null}
!708 = !DIImportedEntity(tag: DW_TAG_imported_declaration, scope: !2, entity: !709, file: !665, line: 111)
!709 = !DISubprogram(name: "fputc", scope: !668, file: !668, line: 549, type: !710, flags: DIFlagPrototyped, spFlags: 0)
!710 = !DISubroutineType(types: !711)
!711 = !{!11, !11, !676}
!712 = !DIImportedEntity(tag: DW_TAG_imported_declaration, scope: !2, entity: !713, file: !665, line: 112)
!713 = !DISubprogram(name: "fputs", scope: !668, file: !668, line: 655, type: !714, flags: DIFlagPrototyped, spFlags: 0)
!714 = !DISubroutineType(types: !715)
!715 = !{!11, !116, !693}
!716 = !DIImportedEntity(tag: DW_TAG_imported_declaration, scope: !2, entity: !717, file: !665, line: 113)
!717 = !DISubprogram(name: "fread", scope: !668, file: !668, line: 675, type: !718, flags: DIFlagPrototyped, spFlags: 0)
!718 = !DISubroutineType(types: !719)
!719 = !{!65, !720, !65, !65, !693}
!720 = !DIDerivedType(tag: DW_TAG_restrict_type, baseType: !62)
!721 = !DIImportedEntity(tag: DW_TAG_imported_declaration, scope: !2, entity: !722, file: !665, line: 114)
!722 = !DISubprogram(name: "freopen", scope: !668, file: !668, line: 265, type: !723, flags: DIFlagPrototyped, spFlags: 0)
!723 = !DISubroutineType(types: !724)
!724 = !{!676, !116, !116, !693}
!725 = !DIImportedEntity(tag: DW_TAG_imported_declaration, scope: !2, entity: !726, file: !665, line: 115)
!726 = !DISubprogram(name: "fscanf", linkageName: "__isoc99_fscanf", scope: !668, file: !668, line: 434, type: !706, flags: DIFlagPrototyped, spFlags: 0)
!727 = !DIImportedEntity(tag: DW_TAG_imported_declaration, scope: !2, entity: !728, file: !665, line: 116)
!728 = !DISubprogram(name: "fseek", scope: !668, file: !668, line: 713, type: !729, flags: DIFlagPrototyped, spFlags: 0)
!729 = !DISubroutineType(types: !730)
!730 = !{!11, !676, !29, !11}
!731 = !DIImportedEntity(tag: DW_TAG_imported_declaration, scope: !2, entity: !732, file: !665, line: 117)
!732 = !DISubprogram(name: "fsetpos", scope: !668, file: !668, line: 765, type: !733, flags: DIFlagPrototyped, spFlags: 0)
!733 = !DISubroutineType(types: !734)
!734 = !{!11, !676, !735}
!735 = !DIDerivedType(tag: DW_TAG_pointer_type, baseType: !736, size: 64)
!736 = !DIDerivedType(tag: DW_TAG_const_type, baseType: !667)
!737 = !DIImportedEntity(tag: DW_TAG_imported_declaration, scope: !2, entity: !738, file: !665, line: 118)
!738 = !DISubprogram(name: "ftell", scope: !668, file: !668, line: 718, type: !739, flags: DIFlagPrototyped, spFlags: 0)
!739 = !DISubroutineType(types: !740)
!740 = !{!29, !676}
!741 = !DIImportedEntity(tag: DW_TAG_imported_declaration, scope: !2, entity: !742, file: !665, line: 119)
!742 = !DISubprogram(name: "fwrite", scope: !668, file: !668, line: 681, type: !743, flags: DIFlagPrototyped, spFlags: 0)
!743 = !DISubroutineType(types: !744)
!744 = !{!65, !745, !65, !65, !693}
!745 = !DIDerivedType(tag: DW_TAG_restrict_type, baseType: !63)
!746 = !DIImportedEntity(tag: DW_TAG_imported_declaration, scope: !2, entity: !747, file: !665, line: 120)
!747 = !DISubprogram(name: "getc", scope: !668, file: !668, line: 514, type: !679, flags: DIFlagPrototyped, spFlags: 0)
!748 = !DIImportedEntity(tag: DW_TAG_imported_declaration, scope: !2, entity: !749, file: !665, line: 121)
!749 = !DISubprogram(name: "getchar", scope: !668, file: !668, line: 520, type: !129, flags: DIFlagPrototyped, spFlags: 0)
!750 = !DIImportedEntity(tag: DW_TAG_imported_declaration, scope: !2, entity: !751, file: !665, line: 126)
!751 = !DISubprogram(name: "perror", scope: !668, file: !668, line: 804, type: !752, flags: DIFlagPrototyped, spFlags: 0)
!752 = !DISubroutineType(types: !753)
!753 = !{null, !47}
!754 = !DIImportedEntity(tag: DW_TAG_imported_declaration, scope: !2, entity: !755, file: !665, line: 127)
!755 = !DISubprogram(name: "printf", scope: !668, file: !668, line: 356, type: !756, flags: DIFlagPrototyped, spFlags: 0)
!756 = !DISubroutineType(types: !757)
!757 = !{!11, !116, null}
!758 = !DIImportedEntity(tag: DW_TAG_imported_declaration, scope: !2, entity: !759, file: !665, line: 128)
!759 = !DISubprogram(name: "putc", scope: !668, file: !668, line: 550, type: !710, flags: DIFlagPrototyped, spFlags: 0)
!760 = !DIImportedEntity(tag: DW_TAG_imported_declaration, scope: !2, entity: !761, file: !665, line: 129)
!761 = !DISubprogram(name: "putchar", scope: !668, file: !668, line: 556, type: !17, flags: DIFlagPrototyped, spFlags: 0)
!762 = !DIImportedEntity(tag: DW_TAG_imported_declaration, scope: !2, entity: !763, file: !665, line: 130)
!763 = !DISubprogram(name: "puts", scope: !668, file: !668, line: 661, type: !52, flags: DIFlagPrototyped, spFlags: 0)
!764 = !DIImportedEntity(tag: DW_TAG_imported_declaration, scope: !2, entity: !765, file: !665, line: 131)
!765 = !DISubprogram(name: "remove", scope: !668, file: !668, line: 152, type: !52, flags: DIFlagPrototyped, spFlags: 0)
!766 = !DIImportedEntity(tag: DW_TAG_imported_declaration, scope: !2, entity: !767, file: !665, line: 132)
!767 = !DISubprogram(name: "rename", scope: !668, file: !668, line: 154, type: !768, flags: DIFlagPrototyped, spFlags: 0)
!768 = !DISubroutineType(types: !769)
!769 = !{!11, !47, !47}
!770 = !DIImportedEntity(tag: DW_TAG_imported_declaration, scope: !2, entity: !771, file: !665, line: 133)
!771 = !DISubprogram(name: "rewind", scope: !668, file: !668, line: 723, type: !674, flags: DIFlagPrototyped, spFlags: 0)
!772 = !DIImportedEntity(tag: DW_TAG_imported_declaration, scope: !2, entity: !773, file: !665, line: 134)
!773 = !DISubprogram(name: "scanf", linkageName: "__isoc99_scanf", scope: !668, file: !668, line: 437, type: !756, flags: DIFlagPrototyped, spFlags: 0)
!774 = !DIImportedEntity(tag: DW_TAG_imported_declaration, scope: !2, entity: !775, file: !665, line: 135)
!775 = !DISubprogram(name: "setbuf", scope: !668, file: !668, line: 328, type: !776, flags: DIFlagPrototyped, spFlags: 0)
!776 = !DISubroutineType(types: !777)
!777 = !{null, !693, !160}
!778 = !DIImportedEntity(tag: DW_TAG_imported_declaration, scope: !2, entity: !779, file: !665, line: 136)
!779 = !DISubprogram(name: "setvbuf", scope: !668, file: !668, line: 332, type: !780, flags: DIFlagPrototyped, spFlags: 0)
!780 = !DISubroutineType(types: !781)
!781 = !{!11, !693, !160, !11, !65}
!782 = !DIImportedEntity(tag: DW_TAG_imported_declaration, scope: !2, entity: !783, file: !665, line: 137)
!783 = !DISubprogram(name: "sprintf", scope: !668, file: !668, line: 358, type: !784, flags: DIFlagPrototyped, spFlags: 0)
!784 = !DISubroutineType(types: !785)
!785 = !{!11, !160, !116, null}
!786 = !DIImportedEntity(tag: DW_TAG_imported_declaration, scope: !2, entity: !787, file: !665, line: 138)
!787 = !DISubprogram(name: "sscanf", linkageName: "__isoc99_sscanf", scope: !668, file: !668, line: 439, type: !788, flags: DIFlagPrototyped, spFlags: 0)
!788 = !DISubroutineType(types: !789)
!789 = !{!11, !116, !116, null}
!790 = !DIImportedEntity(tag: DW_TAG_imported_declaration, scope: !2, entity: !791, file: !665, line: 139)
!791 = !DISubprogram(name: "tmpfile", scope: !668, file: !668, line: 188, type: !792, flags: DIFlagPrototyped, spFlags: 0)
!792 = !DISubroutineType(types: !793)
!793 = !{!676}
!794 = !DIImportedEntity(tag: DW_TAG_imported_declaration, scope: !2, entity: !795, file: !665, line: 141)
!795 = !DISubprogram(name: "tmpnam", scope: !668, file: !668, line: 205, type: !796, flags: DIFlagPrototyped, spFlags: 0)
!796 = !DISubroutineType(types: !797)
!797 = !{!92, !92}
!798 = !DIImportedEntity(tag: DW_TAG_imported_declaration, scope: !2, entity: !799, file: !665, line: 143)
!799 = !DISubprogram(name: "ungetc", scope: !668, file: !668, line: 668, type: !710, flags: DIFlagPrototyped, spFlags: 0)
!800 = !DIImportedEntity(tag: DW_TAG_imported_declaration, scope: !2, entity: !801, file: !665, line: 144)
!801 = !DISubprogram(name: "vfprintf", scope: !668, file: !668, line: 365, type: !802, flags: DIFlagPrototyped, spFlags: 0)
!802 = !DISubroutineType(types: !803)
!803 = !{!11, !693, !116, !364}
!804 = !DIImportedEntity(tag: DW_TAG_imported_declaration, scope: !2, entity: !805, file: !665, line: 145)
!805 = !DISubprogram(name: "vprintf", scope: !668, file: !668, line: 371, type: !806, flags: DIFlagPrototyped, spFlags: 0)
!806 = !DISubroutineType(types: !807)
!807 = !{!11, !116, !364}
!808 = !DIImportedEntity(tag: DW_TAG_imported_declaration, scope: !2, entity: !809, file: !665, line: 146)
!809 = !DISubprogram(name: "vsprintf", scope: !668, file: !668, line: 373, type: !810, flags: DIFlagPrototyped, spFlags: 0)
!810 = !DISubroutineType(types: !811)
!811 = !{!11, !160, !116, !364}
!812 = !DIImportedEntity(tag: DW_TAG_imported_declaration, scope: !169, entity: !813, file: !665, line: 175)
!813 = !DISubprogram(name: "snprintf", scope: !668, file: !668, line: 378, type: !814, flags: DIFlagPrototyped, spFlags: 0)
!814 = !DISubroutineType(types: !815)
!815 = !{!11, !160, !65, !116, null}
!816 = !DIImportedEntity(tag: DW_TAG_imported_declaration, scope: !169, entity: !817, file: !665, line: 176)
!817 = !DISubprogram(name: "vfscanf", linkageName: "__isoc99_vfscanf", scope: !668, file: !668, line: 479, type: !802, flags: DIFlagPrototyped, spFlags: 0)
!818 = !DIImportedEntity(tag: DW_TAG_imported_declaration, scope: !169, entity: !819, file: !665, line: 177)
!819 = !DISubprogram(name: "vscanf", linkageName: "__isoc99_vscanf", scope: !668, file: !668, line: 484, type: !806, flags: DIFlagPrototyped, spFlags: 0)
!820 = !DIImportedEntity(tag: DW_TAG_imported_declaration, scope: !169, entity: !821, file: !665, line: 178)
!821 = !DISubprogram(name: "vsnprintf", scope: !668, file: !668, line: 382, type: !822, flags: DIFlagPrototyped, spFlags: 0)
!822 = !DISubroutineType(types: !823)
!823 = !{!11, !160, !65, !116, !364}
!824 = !DIImportedEntity(tag: DW_TAG_imported_declaration, scope: !169, entity: !825, file: !665, line: 179)
!825 = !DISubprogram(name: "vsscanf", linkageName: "__isoc99_vsscanf", scope: !668, file: !668, line: 487, type: !826, flags: DIFlagPrototyped, spFlags: 0)
!826 = !DISubroutineType(types: !827)
!827 = !{!11, !116, !116, !364}
!828 = !DIImportedEntity(tag: DW_TAG_imported_declaration, scope: !2, entity: !813, file: !665, line: 185)
!829 = !DIImportedEntity(tag: DW_TAG_imported_declaration, scope: !2, entity: !817, file: !665, line: 186)
!830 = !DIImportedEntity(tag: DW_TAG_imported_declaration, scope: !2, entity: !819, file: !665, line: 187)
!831 = !DIImportedEntity(tag: DW_TAG_imported_declaration, scope: !2, entity: !821, file: !665, line: 188)
!832 = !DIImportedEntity(tag: DW_TAG_imported_declaration, scope: !2, entity: !825, file: !665, line: 189)
!833 = !DIImportedEntity(tag: DW_TAG_imported_declaration, scope: !2, entity: !834, file: !838, line: 82)
!834 = !DIDerivedType(tag: DW_TAG_typedef, name: "wctrans_t", file: !835, line: 48, baseType: !836)
!835 = !DIFile(filename: "/usr/include/wctype.h", directory: "", checksumkind: CSK_MD5, checksum: "9bcd8e8b8cd2078c8a6c42e262af7d7b")
!836 = !DIDerivedType(tag: DW_TAG_pointer_type, baseType: !837, size: 64)
!837 = !DIDerivedType(tag: DW_TAG_const_type, baseType: !549)
!838 = !DIFile(filename: "/usr/bin/../lib/gcc/x86_64-linux-gnu/11/../../../../include/c++/11/cwctype", directory: "")
!839 = !DIImportedEntity(tag: DW_TAG_imported_declaration, scope: !2, entity: !840, file: !838, line: 83)
!840 = !DIDerivedType(tag: DW_TAG_typedef, name: "wctype_t", file: !841, line: 38, baseType: !67)
!841 = !DIFile(filename: "/usr/include/x86_64-linux-gnu/bits/wctype-wchar.h", directory: "", checksumkind: CSK_MD5, checksum: "48fed714a84c77fca0455b433489fc47")
!842 = !DIImportedEntity(tag: DW_TAG_imported_declaration, scope: !2, entity: !275, file: !838, line: 84)
!843 = !DIImportedEntity(tag: DW_TAG_imported_declaration, scope: !2, entity: !844, file: !838, line: 86)
!844 = !DISubprogram(name: "iswalnum", scope: !841, file: !841, line: 95, type: !466, flags: DIFlagPrototyped, spFlags: 0)
!845 = !DIImportedEntity(tag: DW_TAG_imported_declaration, scope: !2, entity: !846, file: !838, line: 87)
!846 = !DISubprogram(name: "iswalpha", scope: !841, file: !841, line: 101, type: !466, flags: DIFlagPrototyped, spFlags: 0)
!847 = !DIImportedEntity(tag: DW_TAG_imported_declaration, scope: !2, entity: !848, file: !838, line: 89)
!848 = !DISubprogram(name: "iswblank", scope: !841, file: !841, line: 146, type: !466, flags: DIFlagPrototyped, spFlags: 0)
!849 = !DIImportedEntity(tag: DW_TAG_imported_declaration, scope: !2, entity: !850, file: !838, line: 91)
!850 = !DISubprogram(name: "iswcntrl", scope: !841, file: !841, line: 104, type: !466, flags: DIFlagPrototyped, spFlags: 0)
!851 = !DIImportedEntity(tag: DW_TAG_imported_declaration, scope: !2, entity: !852, file: !838, line: 92)
!852 = !DISubprogram(name: "iswctype", scope: !841, file: !841, line: 159, type: !853, flags: DIFlagPrototyped, spFlags: 0)
!853 = !DISubroutineType(types: !854)
!854 = !{!11, !275, !840}
!855 = !DIImportedEntity(tag: DW_TAG_imported_declaration, scope: !2, entity: !856, file: !838, line: 93)
!856 = !DISubprogram(name: "iswdigit", scope: !841, file: !841, line: 108, type: !466, flags: DIFlagPrototyped, spFlags: 0)
!857 = !DIImportedEntity(tag: DW_TAG_imported_declaration, scope: !2, entity: !858, file: !838, line: 94)
!858 = !DISubprogram(name: "iswgraph", scope: !841, file: !841, line: 112, type: !466, flags: DIFlagPrototyped, spFlags: 0)
!859 = !DIImportedEntity(tag: DW_TAG_imported_declaration, scope: !2, entity: !860, file: !838, line: 95)
!860 = !DISubprogram(name: "iswlower", scope: !841, file: !841, line: 117, type: !466, flags: DIFlagPrototyped, spFlags: 0)
!861 = !DIImportedEntity(tag: DW_TAG_imported_declaration, scope: !2, entity: !862, file: !838, line: 96)
!862 = !DISubprogram(name: "iswprint", scope: !841, file: !841, line: 120, type: !466, flags: DIFlagPrototyped, spFlags: 0)
!863 = !DIImportedEntity(tag: DW_TAG_imported_declaration, scope: !2, entity: !864, file: !838, line: 97)
!864 = !DISubprogram(name: "iswpunct", scope: !841, file: !841, line: 125, type: !466, flags: DIFlagPrototyped, spFlags: 0)
!865 = !DIImportedEntity(tag: DW_TAG_imported_declaration, scope: !2, entity: !866, file: !838, line: 98)
!866 = !DISubprogram(name: "iswspace", scope: !841, file: !841, line: 130, type: !466, flags: DIFlagPrototyped, spFlags: 0)
!867 = !DIImportedEntity(tag: DW_TAG_imported_declaration, scope: !2, entity: !868, file: !838, line: 99)
!868 = !DISubprogram(name: "iswupper", scope: !841, file: !841, line: 135, type: !466, flags: DIFlagPrototyped, spFlags: 0)
!869 = !DIImportedEntity(tag: DW_TAG_imported_declaration, scope: !2, entity: !870, file: !838, line: 100)
!870 = !DISubprogram(name: "iswxdigit", scope: !841, file: !841, line: 140, type: !466, flags: DIFlagPrototyped, spFlags: 0)
!871 = !DIImportedEntity(tag: DW_TAG_imported_declaration, scope: !2, entity: !872, file: !838, line: 101)
!872 = !DISubprogram(name: "towctrans", scope: !835, file: !835, line: 55, type: !873, flags: DIFlagPrototyped, spFlags: 0)
!873 = !DISubroutineType(types: !874)
!874 = !{!275, !275, !834}
!875 = !DIImportedEntity(tag: DW_TAG_imported_declaration, scope: !2, entity: !876, file: !838, line: 102)
!876 = !DISubprogram(name: "towlower", scope: !841, file: !841, line: 166, type: !877, flags: DIFlagPrototyped, spFlags: 0)
!877 = !DISubroutineType(types: !878)
!878 = !{!275, !275}
!879 = !DIImportedEntity(tag: DW_TAG_imported_declaration, scope: !2, entity: !880, file: !838, line: 103)
!880 = !DISubprogram(name: "towupper", scope: !841, file: !841, line: 169, type: !877, flags: DIFlagPrototyped, spFlags: 0)
!881 = !DIImportedEntity(tag: DW_TAG_imported_declaration, scope: !2, entity: !882, file: !838, line: 104)
!882 = !DISubprogram(name: "wctrans", scope: !835, file: !835, line: 52, type: !883, flags: DIFlagPrototyped, spFlags: 0)
!883 = !DISubroutineType(types: !884)
!884 = !{!834, !47}
!885 = !DIImportedEntity(tag: DW_TAG_imported_declaration, scope: !2, entity: !886, file: !838, line: 105)
!886 = !DISubprogram(name: "wctype", scope: !841, file: !841, line: 155, type: !887, flags: DIFlagPrototyped, spFlags: 0)
!887 = !DISubroutineType(types: !888)
!888 = !{!840, !47}
!889 = !DIImportedEntity(tag: DW_TAG_imported_module, scope: !7, entity: !2, file: !8, line: 8)
!890 = !{i32 7, !"Dwarf Version", i32 5}
!891 = !{i32 2, !"Debug Info Version", i32 3}
!892 = !{i32 1, !"wchar_size", i32 4}
!893 = !{i32 7, !"PIC Level", i32 2}
!894 = !{i32 7, !"PIE Level", i32 2}
!895 = !{i32 7, !"uwtable", i32 1}
!896 = !{i32 7, !"frame-pointer", i32 2}
!897 = !{!"Ubuntu clang version 14.0.0-1ubuntu1.1"}
!898 = distinct !DISubprogram(name: "__cxx_global_var_init", scope: !368, file: !368, type: !33, flags: DIFlagArtificial, spFlags: DISPFlagLocalToUnit | DISPFlagDefinition, unit: !7, retainedNodes: !899)
!899 = !{}
!900 = !DILocation(line: 74, column: 25, scope: !901)
!901 = !DILexicalBlockFile(scope: !898, file: !3, discriminator: 0)
!902 = !DILocation(line: 0, scope: !898)
!903 = distinct !DISubprogram(name: "partition", linkageName: "_Z9partitionPiii", scope: !8, file: !8, line: 10, type: !904, scopeLine: 10, flags: DIFlagPrototyped, spFlags: DISPFlagDefinition, unit: !7, retainedNodes: !899)
!904 = !DISubroutineType(types: !905)
!905 = !{!11, !10, !11, !11}
!906 = !DILocalVariable(name: "arr", arg: 1, scope: !903, file: !8, line: 10, type: !10)
!907 = !DILocation(line: 10, column: 19, scope: !903)
!908 = !DILocalVariable(name: "start", arg: 2, scope: !903, file: !8, line: 10, type: !11)
!909 = !DILocation(line: 10, column: 30, scope: !903)
!910 = !DILocalVariable(name: "end", arg: 3, scope: !903, file: !8, line: 10, type: !11)
!911 = !DILocation(line: 10, column: 41, scope: !903)
!912 = !DILocalVariable(name: "pivot", scope: !903, file: !8, line: 12, type: !11)
!913 = !DILocation(line: 12, column: 7, scope: !903)
!914 = !DILocation(line: 12, column: 15, scope: !903)
!915 = !DILocation(line: 12, column: 19, scope: !903)
!916 = !DILocalVariable(name: "count", scope: !903, file: !8, line: 14, type: !11)
!917 = !DILocation(line: 14, column: 7, scope: !903)
!918 = !DILocalVariable(name: "i", scope: !919, file: !8, line: 15, type: !11)
!919 = distinct !DILexicalBlock(scope: !903, file: !8, line: 15, column: 3)
!920 = !DILocation(line: 15, column: 12, scope: !919)
!921 = !DILocation(line: 15, column: 16, scope: !919)
!922 = !DILocation(line: 15, column: 8, scope: !919)
!923 = !DILocation(line: 15, column: 21, scope: !924)
!924 = distinct !DILexicalBlock(scope: !919, file: !8, line: 15, column: 3)
!925 = !DILocation(line: 15, column: 25, scope: !924)
!926 = !DILocation(line: 15, column: 23, scope: !924)
!927 = !DILocation(line: 15, column: 3, scope: !919)
!928 = !DILocation(line: 16, column: 9, scope: !929)
!929 = distinct !DILexicalBlock(scope: !930, file: !8, line: 16, column: 9)
!930 = distinct !DILexicalBlock(scope: !924, file: !8, line: 15, column: 37)
!931 = !DILocation(line: 16, column: 13, scope: !929)
!932 = !DILocation(line: 16, column: 19, scope: !929)
!933 = !DILocation(line: 16, column: 16, scope: !929)
!934 = !DILocation(line: 16, column: 9, scope: !930)
!935 = !DILocation(line: 17, column: 12, scope: !929)
!936 = !DILocation(line: 17, column: 7, scope: !929)
!937 = !DILocation(line: 18, column: 3, scope: !930)
!938 = !DILocation(line: 15, column: 33, scope: !924)
!939 = !DILocation(line: 15, column: 3, scope: !924)
!940 = distinct !{!940, !927, !941, !942}
!941 = !DILocation(line: 18, column: 3, scope: !919)
!942 = !{!"llvm.loop.mustprogress"}
!943 = !DILocalVariable(name: "pivotIndex", scope: !903, file: !8, line: 20, type: !11)
!944 = !DILocation(line: 20, column: 7, scope: !903)
!945 = !DILocation(line: 20, column: 20, scope: !903)
!946 = !DILocation(line: 20, column: 28, scope: !903)
!947 = !DILocation(line: 20, column: 26, scope: !903)
!948 = !DILocation(line: 21, column: 8, scope: !903)
!949 = !DILocation(line: 21, column: 12, scope: !903)
!950 = !DILocation(line: 21, column: 25, scope: !903)
!951 = !DILocation(line: 21, column: 29, scope: !903)
!952 = !DILocation(line: 21, column: 3, scope: !903)
!953 = !DILocalVariable(name: "i", scope: !903, file: !8, line: 23, type: !11)
!954 = !DILocation(line: 23, column: 7, scope: !903)
!955 = !DILocation(line: 23, column: 11, scope: !903)
!956 = !DILocalVariable(name: "j", scope: !903, file: !8, line: 23, type: !11)
!957 = !DILocation(line: 23, column: 18, scope: !903)
!958 = !DILocation(line: 23, column: 22, scope: !903)
!959 = !DILocation(line: 25, column: 3, scope: !903)
!960 = !DILocation(line: 25, column: 10, scope: !903)
!961 = !DILocation(line: 25, column: 14, scope: !903)
!962 = !DILocation(line: 25, column: 12, scope: !903)
!963 = !DILocation(line: 25, column: 25, scope: !903)
!964 = !DILocation(line: 25, column: 28, scope: !903)
!965 = !DILocation(line: 25, column: 32, scope: !903)
!966 = !DILocation(line: 25, column: 30, scope: !903)
!967 = !DILocation(line: 0, scope: !903)
!968 = !DILocation(line: 27, column: 5, scope: !969)
!969 = distinct !DILexicalBlock(scope: !903, file: !8, line: 25, column: 44)
!970 = !DILocation(line: 27, column: 12, scope: !969)
!971 = !DILocation(line: 27, column: 16, scope: !969)
!972 = !DILocation(line: 27, column: 22, scope: !969)
!973 = !DILocation(line: 27, column: 19, scope: !969)
!974 = !DILocation(line: 28, column: 8, scope: !975)
!975 = distinct !DILexicalBlock(scope: !969, file: !8, line: 27, column: 29)
!976 = distinct !{!976, !968, !977, !942}
!977 = !DILocation(line: 29, column: 5, scope: !969)
!978 = !DILocation(line: 31, column: 5, scope: !969)
!979 = !DILocation(line: 31, column: 12, scope: !969)
!980 = !DILocation(line: 31, column: 16, scope: !969)
!981 = !DILocation(line: 31, column: 21, scope: !969)
!982 = !DILocation(line: 31, column: 19, scope: !969)
!983 = !DILocation(line: 32, column: 8, scope: !984)
!984 = distinct !DILexicalBlock(scope: !969, file: !8, line: 31, column: 28)
!985 = distinct !{!985, !978, !986, !942}
!986 = !DILocation(line: 33, column: 5, scope: !969)
!987 = !DILocation(line: 35, column: 9, scope: !988)
!988 = distinct !DILexicalBlock(scope: !969, file: !8, line: 35, column: 9)
!989 = !DILocation(line: 35, column: 13, scope: !988)
!990 = !DILocation(line: 35, column: 11, scope: !988)
!991 = !DILocation(line: 35, column: 24, scope: !988)
!992 = !DILocation(line: 35, column: 27, scope: !988)
!993 = !DILocation(line: 35, column: 31, scope: !988)
!994 = !DILocation(line: 35, column: 29, scope: !988)
!995 = !DILocation(line: 35, column: 9, scope: !969)
!996 = !DILocation(line: 36, column: 12, scope: !997)
!997 = distinct !DILexicalBlock(scope: !988, file: !8, line: 35, column: 43)
!998 = !DILocation(line: 36, column: 17, scope: !997)
!999 = !DILocation(line: 36, column: 22, scope: !997)
!1000 = !DILocation(line: 36, column: 27, scope: !997)
!1001 = !DILocation(line: 36, column: 7, scope: !997)
!1002 = !DILocation(line: 37, column: 5, scope: !997)
!1003 = distinct !{!1003, !959, !1004, !942}
!1004 = !DILocation(line: 38, column: 3, scope: !903)
!1005 = !DILocation(line: 40, column: 10, scope: !903)
!1006 = !DILocation(line: 40, column: 3, scope: !903)
!1007 = distinct !DISubprogram(name: "swap<int>", linkageName: "_ZSt4swapIiENSt9enable_ifIXsr6__and_ISt6__not_ISt15__is_tuple_likeIT_EESt21is_move_constructibleIS3_ESt18is_move_assignableIS3_EEE5valueEvE4typeERS3_SC_", scope: !2, file: !1008, line: 196, type: !1009, scopeLine: 199, flags: DIFlagPrototyped, spFlags: DISPFlagDefinition, unit: !7, templateParams: !1019, retainedNodes: !899)
!1008 = !DIFile(filename: "/usr/bin/../lib/gcc/x86_64-linux-gnu/11/../../../../include/c++/11/bits/move.h", directory: "", checksumkind: CSK_MD5, checksum: "156ce13c58f77c44098165fa0e6b5efc")
!1009 = !DISubroutineType(types: !1010)
!1010 = !{!1011, !1018, !1018}
!1011 = !DIDerivedType(tag: DW_TAG_typedef, name: "type", scope: !1013, file: !1012, line: 2199, baseType: null)
!1012 = !DIFile(filename: "/usr/bin/../lib/gcc/x86_64-linux-gnu/11/../../../../include/c++/11/type_traits", directory: "")
!1013 = distinct !DICompositeType(tag: DW_TAG_structure_type, name: "enable_if<true, void>", scope: !2, file: !1012, line: 2198, size: 8, flags: DIFlagTypePassByValue, elements: !899, templateParams: !1014, identifier: "_ZTSSt9enable_ifILb1EvE")
!1014 = !{!1015, !1017}
!1015 = !DITemplateValueParameter(type: !1016, value: i8 1)
!1016 = !DIBasicType(name: "bool", size: 8, encoding: DW_ATE_boolean)
!1017 = !DITemplateTypeParameter(name: "_Tp", type: null, defaulted: true)
!1018 = !DIDerivedType(tag: DW_TAG_reference_type, baseType: !11, size: 64)
!1019 = !{!1020}
!1020 = !DITemplateTypeParameter(name: "_Tp", type: !11)
!1021 = !DILocalVariable(name: "__a", arg: 1, scope: !1007, file: !1008, line: 196, type: !1018)
!1022 = !DILocation(line: 196, column: 15, scope: !1007)
!1023 = !DILocalVariable(name: "__b", arg: 2, scope: !1007, file: !1008, line: 196, type: !1018)
!1024 = !DILocation(line: 196, column: 25, scope: !1007)
!1025 = !DILocalVariable(name: "__tmp", scope: !1007, file: !1008, line: 204, type: !11)
!1026 = !DILocation(line: 204, column: 11, scope: !1007)
!1027 = !DILocation(line: 204, column: 19, scope: !1007)
!1028 = !DILocation(line: 205, column: 13, scope: !1007)
!1029 = !DILocation(line: 205, column: 7, scope: !1007)
!1030 = !DILocation(line: 205, column: 11, scope: !1007)
!1031 = !DILocation(line: 206, column: 13, scope: !1007)
!1032 = !DILocation(line: 206, column: 7, scope: !1007)
!1033 = !DILocation(line: 206, column: 11, scope: !1007)
!1034 = !DILocation(line: 207, column: 5, scope: !1007)
!1035 = distinct !DISubprogram(name: "quickSort", linkageName: "_Z9quickSortPiii", scope: !8, file: !8, line: 43, type: !1036, scopeLine: 43, flags: DIFlagPrototyped, spFlags: DISPFlagDefinition, unit: !7, retainedNodes: !899)
!1036 = !DISubroutineType(types: !1037)
!1037 = !{null, !10, !11, !11}
!1038 = !DILocalVariable(name: "arr", arg: 1, scope: !1035, file: !8, line: 43, type: !10)
!1039 = !DILocation(line: 43, column: 20, scope: !1035)
!1040 = !DILocalVariable(name: "start", arg: 2, scope: !1035, file: !8, line: 43, type: !11)
!1041 = !DILocation(line: 43, column: 31, scope: !1035)
!1042 = !DILocalVariable(name: "end", arg: 3, scope: !1035, file: !8, line: 43, type: !11)
!1043 = !DILocation(line: 43, column: 42, scope: !1035)
!1044 = !DILocation(line: 45, column: 7, scope: !1045)
!1045 = distinct !DILexicalBlock(scope: !1035, file: !8, line: 45, column: 7)
!1046 = !DILocation(line: 45, column: 16, scope: !1045)
!1047 = !DILocation(line: 45, column: 13, scope: !1045)
!1048 = !DILocation(line: 45, column: 7, scope: !1035)
!1049 = !DILocation(line: 46, column: 7, scope: !1045)
!1050 = !DILocalVariable(name: "p", scope: !1035, file: !8, line: 48, type: !11)
!1051 = !DILocation(line: 48, column: 7, scope: !1035)
!1052 = !DILocation(line: 48, column: 21, scope: !1035)
!1053 = !DILocation(line: 48, column: 26, scope: !1035)
!1054 = !DILocation(line: 48, column: 33, scope: !1035)
!1055 = !DILocation(line: 48, column: 11, scope: !1035)
!1056 = !DILocation(line: 49, column: 13, scope: !1035)
!1057 = !DILocation(line: 49, column: 18, scope: !1035)
!1058 = !DILocation(line: 49, column: 25, scope: !1035)
!1059 = !DILocation(line: 49, column: 27, scope: !1035)
!1060 = !DILocation(line: 49, column: 3, scope: !1035)
!1061 = !DILocation(line: 50, column: 13, scope: !1035)
!1062 = !DILocation(line: 50, column: 18, scope: !1035)
!1063 = !DILocation(line: 50, column: 20, scope: !1035)
!1064 = !DILocation(line: 50, column: 25, scope: !1035)
!1065 = !DILocation(line: 50, column: 3, scope: !1035)
!1066 = !DILocation(line: 51, column: 1, scope: !1035)
!1067 = distinct !DISubprogram(name: "main", scope: !8, file: !8, line: 53, type: !129, scopeLine: 53, flags: DIFlagPrototyped, spFlags: DISPFlagDefinition, unit: !7, retainedNodes: !899)
!1068 = !DILocalVariable(name: "n", scope: !1067, file: !8, line: 55, type: !10)
!1069 = !DILocation(line: 55, column: 8, scope: !1067)
!1070 = !DILocation(line: 55, column: 19, scope: !1067)
!1071 = !DILocation(line: 55, column: 12, scope: !1067)
!1072 = !DILocation(line: 57, column: 7, scope: !1073)
!1073 = distinct !DILexicalBlock(scope: !1067, file: !8, line: 57, column: 7)
!1074 = !DILocation(line: 57, column: 9, scope: !1073)
!1075 = !DILocation(line: 57, column: 7, scope: !1067)
!1076 = !DILocation(line: 58, column: 5, scope: !1077)
!1077 = distinct !DILexicalBlock(scope: !1073, file: !8, line: 57, column: 18)
!1078 = !DILocation(line: 61, column: 4, scope: !1067)
!1079 = !DILocation(line: 61, column: 6, scope: !1067)
!1080 = !DILocalVariable(name: "arr", scope: !1067, file: !8, line: 63, type: !10)
!1081 = !DILocation(line: 63, column: 8, scope: !1067)
!1082 = !DILocation(line: 63, column: 29, scope: !1067)
!1083 = !DILocation(line: 63, column: 28, scope: !1067)
!1084 = !DILocation(line: 63, column: 21, scope: !1067)
!1085 = !DILocation(line: 63, column: 14, scope: !1067)
!1086 = !DILocation(line: 65, column: 10, scope: !1067)
!1087 = !DILocation(line: 65, column: 3, scope: !1067)
!1088 = !DILocation(line: 65, column: 23, scope: !1067)
!1089 = !DILocation(line: 67, column: 13, scope: !1067)
!1090 = !DILocation(line: 67, column: 22, scope: !1067)
!1091 = !DILocation(line: 67, column: 21, scope: !1067)
!1092 = !DILocation(line: 67, column: 24, scope: !1067)
!1093 = !DILocation(line: 67, column: 3, scope: !1067)
!1094 = !DILocalVariable(name: "i", scope: !1095, file: !8, line: 69, type: !11)
!1095 = distinct !DILexicalBlock(scope: !1067, file: !8, line: 69, column: 3)
!1096 = !DILocation(line: 69, column: 12, scope: !1095)
!1097 = !DILocation(line: 69, column: 8, scope: !1095)
!1098 = !DILocation(line: 69, column: 19, scope: !1099)
!1099 = distinct !DILexicalBlock(scope: !1095, file: !8, line: 69, column: 3)
!1100 = !DILocation(line: 69, column: 24, scope: !1099)
!1101 = !DILocation(line: 69, column: 23, scope: !1099)
!1102 = !DILocation(line: 69, column: 21, scope: !1099)
!1103 = !DILocation(line: 69, column: 3, scope: !1095)
!1104 = !DILocation(line: 70, column: 15, scope: !1105)
!1105 = distinct !DILexicalBlock(scope: !1099, file: !8, line: 69, column: 32)
!1106 = !DILocation(line: 70, column: 19, scope: !1105)
!1107 = !DILocation(line: 70, column: 12, scope: !1105)
!1108 = !DILocation(line: 70, column: 22, scope: !1105)
!1109 = !DILocation(line: 71, column: 3, scope: !1105)
!1110 = !DILocation(line: 69, column: 28, scope: !1099)
!1111 = !DILocation(line: 69, column: 3, scope: !1099)
!1112 = distinct !{!1112, !1103, !1113, !942}
!1113 = !DILocation(line: 71, column: 3, scope: !1095)
!1114 = !DILocation(line: 73, column: 8, scope: !1067)
!1115 = !DILocation(line: 75, column: 8, scope: !1067)
!1116 = !DILocation(line: 75, column: 3, scope: !1067)
!1117 = !DILocation(line: 76, column: 3, scope: !1067)
!1118 = !DILocation(line: 77, column: 1, scope: !1067)
!1119 = distinct !DISubprogram(name: "move<int &>", linkageName: "_ZSt4moveIRiEONSt16remove_referenceIT_E4typeEOS2_", scope: !2, file: !1008, line: 104, type: !1120, scopeLine: 105, flags: DIFlagPrototyped, spFlags: DISPFlagDefinition, unit: !7, templateParams: !1125, retainedNodes: !899)
!1120 = !DISubroutineType(types: !1121)
!1121 = !{!1122, !1018}
!1122 = !DIDerivedType(tag: DW_TAG_rvalue_reference_type, baseType: !1123, size: 64)
!1123 = !DIDerivedType(tag: DW_TAG_typedef, name: "type", scope: !1124, file: !1012, line: 1602, baseType: !11)
!1124 = distinct !DICompositeType(tag: DW_TAG_structure_type, name: "remove_reference<int &>", scope: !2, file: !1012, line: 1601, size: 8, flags: DIFlagTypePassByValue, elements: !899, templateParams: !1125, identifier: "_ZTSSt16remove_referenceIRiE")
!1125 = !{!1126}
!1126 = !DITemplateTypeParameter(name: "_Tp", type: !1018)
!1127 = !DILocalVariable(name: "__t", arg: 1, scope: !1119, file: !1008, line: 104, type: !1018)
!1128 = !DILocation(line: 104, column: 16, scope: !1119)
!1129 = !DILocation(line: 105, column: 71, scope: !1119)
!1130 = !DILocation(line: 105, column: 7, scope: !1119)
!1131 = distinct !DISubprogram(linkageName: "_GLOBAL__sub_I_Quicksort.cpp", scope: !368, file: !368, type: !1132, flags: DIFlagArtificial, spFlags: DISPFlagLocalToUnit | DISPFlagDefinition, unit: !7, retainedNodes: !899)
!1132 = !DISubroutineType(types: !899)
!1133 = !DILocation(line: 0, scope: !1131)
